
Debug/emain.elf:     file format elf32-epiphany


Disassembly of section ivt_reset:

00000000 <_start>:
   0:	2ce8 0000 	b 58 <.normal_start>

Disassembly of section workgroup_config:

00000028 <_e_group_config>:
	...

Disassembly of section external_mem_config:

00000050 <_e_emem_config>:
	...

Disassembly of section .reserved_crt0:

00000058 <.normal_start>:
  58:	700b 0012 	mov r3,0x180
  5c:	600b 1002 	movt r3,0x0
  60:	0d52      	jalr r3
	...

Disassembly of section NEW_LIB_RO:

8e000000 <_exit>:
8e000000:	955c 0700 	str r4,[sp],-0x2
8e000004:	478b 0002 	mov r2,0x3c
8e000008:	2003      	mov r1,0x0
8e00000a:	400b 18e2 	movt r2,0x8e00
8e00000e:	d5dc 2400 	str lr,[sp,+0x3]
8e000012:	80e2      	mov r4,r0
8e000014:	0952      	jalr r2
8e000016:	070b 0002 	mov r0,0x38
8e00001a:	000b 18e2 	movt r0,0x8e00
8e00001e:	0044      	ldr r0,[r0]
8e000020:	23cc 0001 	ldr r1,[r0,+0xf]
8e000024:	4433      	sub r2,r1,0
8e000026:	0200      	beq 8e00002a <_exit+0x2a>
8e000028:	0552      	jalr r1
8e00002a:	380b 0052 	mov r1,0x5c0
8e00002e:	10e2      	mov r0,r4
8e000030:	200b 18e2 	movt r1,0x8e00
8e000034:	0552      	jalr r1
8e000036:	01a2      	nop

8e000038 <__global_impure_ptr>:
8e000038:	0178 8e00 	bgte 8d1c003a <__PROG_SIZE_FOR_CORE_+0x8d0c003a>

8e00003c <___call_exitprocs>:
8e00003c:	470b 0002 	mov r2,0x38
8e000040:	97fc 0700 	strd r4,[sp],-0x7
8e000044:	400b 18e2 	movt r2,0x8e00
8e000048:	567c 2400 	strd r10,[sp,+0x4]
8e00004c:	157c 8400 	strd r32,[sp,+0x2]
8e000050:	484c 2000 	ldr r10,[r2,+0x0]
8e000054:	000b 8002 	mov r32,0x0
8e000058:	16fc 2400 	strd r8,[sp,+0x5]
8e00005c:	d77c 0400 	strd r6,[sp,+0x6]
8e000060:	60ef 2002 	mov fp,r0
8e000064:	c4e2      	mov r6,r1
8e000066:	002b 2002 	mov r8,0x1
8e00006a:	200b 2002 	mov r9,0x0
8e00006e:	000b 9002 	movt r32,0x0
8e000072:	d5fc 2400 	strd lr,[sp,+0x3]
8e000076:	55dc 8400 	str r34,[sp,+0x3]
8e00007a:	e94c 040a 	ldr r7,[r10,+0x52]
8e00007e:	481b 8429 	add r34,r10,328
8e000082:	1c33      	sub r0,r7,0
8e000084:	4500      	beq 8e00010e <___call_exitprocs+0xd2>
8e000086:	1cc4      	ldr r0,[r7,0x1]
8e000088:	8393      	add r4,r0,-1
8e00008a:	3033      	sub r1,r4,0
8e00008c:	3e80      	blt 8e000108 <___call_exitprocs+0xcc>
8e00008e:	a39b 0003 	add r5,r0,31
8e000092:	fc1b 2011 	add r15,r7,136
8e000096:	b456      	lsl r5,r5,0x2
8e000098:	be9f 040a 	add r5,r15,r5
8e00009c:	08e0      	b 8e0000ac <___call_exitprocs+0x70>
8e00009e:	3444      	ldr r1,[r5]
8e0000a0:	073a      	sub r0,r1,r6
8e0000a2:	0700      	beq 8e0000b0 <___call_exitprocs+0x74>
8e0000a4:	9393      	add r4,r4,-1
8e0000a6:	b613      	add r5,r5,-4
8e0000a8:	13b3      	sub r0,r4,-1
8e0000aa:	2f00      	beq 8e000108 <___call_exitprocs+0xcc>
8e0000ac:	7833      	sub r3,r6,0
8e0000ae:	f810      	bne 8e00009e <___call_exitprocs+0x62>
8e0000b0:	5cc4      	ldr r2,[r7,0x1]
8e0000b2:	37bf 008a 	sub r1,r5,r15
8e0000b6:	3c9a      	add r1,r7,r1
8e0000b8:	4b93      	add r2,r2,-1
8e0000ba:	6a3a      	sub r3,r2,r4
8e0000bc:	474c 0103 	ldr r2,[r1,-0x1e]
8e0000c0:	3b00      	beq 8e000136 <___call_exitprocs+0xfa>
8e0000c2:	275c 2103 	str r9,[r1,-0x1e]
8e0000c6:	0833      	sub r0,r2,0
8e0000c8:	ee00      	beq 8e0000a4 <___call_exitprocs+0x68>
8e0000ca:	1d4c 000c 	ldr r0,[r7,+0x62]
8e0000ce:	222f 040a 	lsl r1,r8,r4
8e0000d2:	045a      	and r0,r1,r0
8e0000d4:	6033      	sub r3,r0,0
8e0000d6:	3ccc 8000 	ldr r33,[r7,+0x1]
8e0000da:	2c00      	beq 8e000132 <___call_exitprocs+0xf6>
8e0000dc:	1dcc 000c 	ldr r0,[r7,+0x63]
8e0000e0:	245a      	and r1,r1,r0
8e0000e2:	0433      	sub r0,r1,0
8e0000e4:	2b10      	bne 8e00013a <___call_exitprocs+0xfe>
8e0000e6:	344c 0104 	ldr r1,[r5,-0x20]
8e0000ea:	0cef 0402 	mov r0,fp
8e0000ee:	0952      	jalr r2
8e0000f0:	1cc4      	ldr r0,[r7,0x1]
8e0000f2:	20bf 020a 	sub r1,r0,r33
8e0000f6:	c210      	bne 8e00007a <___call_exitprocs+0x3e>
8e0000f8:	084c 1000 	ldr r0,[r34,+0x0]
8e0000fc:	63ba      	sub r3,r0,r7
8e0000fe:	be10      	bne 8e00007a <___call_exitprocs+0x3e>
8e000100:	9393      	add r4,r4,-1
8e000102:	b613      	add r5,r5,-4
8e000104:	13b3      	sub r0,r4,-1
8e000106:	d310      	bne 8e0000ac <___call_exitprocs+0x70>
8e000108:	203b 1000 	sub r1,r32,0
8e00010c:	1b10      	bne 8e000142 <___call_exitprocs+0x106>
8e00010e:	d76c 0400 	ldrd r6,[sp,+0x6]
8e000112:	16ec 2400 	ldrd r8,[sp,+0x5]
8e000116:	566c 2400 	ldrd r10,[sp,+0x4]
8e00011a:	d5ec 2400 	ldrd lr,[sp,+0x3]
8e00011e:	156c 8400 	ldrd r32,[sp,+0x2]
8e000122:	55cc 8400 	ldr r34,[sp,+0x3]
8e000126:	b41b 2407 	add sp,sp,56
8e00012a:	946c 0400 	ldrd r4,[sp,+0x0]
8e00012e:	194f 0402 	rts
8e000132:	0952      	jalr r2
8e000134:	dee0      	b 8e0000f0 <___call_exitprocs+0xb4>
8e000136:	9cd4      	str r4,[r7,0x1]
8e000138:	c7e0      	b 8e0000c6 <___call_exitprocs+0x8a>
8e00013a:	144c 0104 	ldr r0,[r5,-0x20]
8e00013e:	0952      	jalr r2
8e000140:	d8e0      	b 8e0000f0 <___call_exitprocs+0xb4>
8e000142:	1cc4      	ldr r0,[r7,0x1]
8e000144:	6033      	sub r3,r0,0
8e000146:	0e10      	bne 8e000162 <___call_exitprocs+0x126>
8e000148:	3c44      	ldr r1,[r7]
8e00014a:	0433      	sub r0,r1,0
8e00014c:	1000      	beq 8e00016c <___call_exitprocs+0x130>
8e00014e:	1ce2      	mov r0,r7
8e000150:	285c 1000 	str r1,[r34]
8e000154:	015f 1002 	jalr r32
8e000158:	e84c 1000 	ldr r7,[r34,+0x0]
8e00015c:	3c33      	sub r1,r7,0
8e00015e:	9410      	bne 8e000086 <___call_exitprocs+0x4a>
8e000160:	d7e0      	b 8e00010e <___call_exitprocs+0xd2>
8e000162:	1c44      	ldr r0,[r7]
8e000164:	5cef 8002 	mov r34,r7
8e000168:	e0e2      	mov r7,r0
8e00016a:	f9e0      	b 8e00015c <___call_exitprocs+0x120>
8e00016c:	0003      	mov r0,0x0
8e00016e:	fbe0 	b 8e000164 <___call_exitprocs+0x128>

Disassembly of section NEW_LIB_WR:

8e000170 <__impure_ptr>:
8e000170:	0178 8e00 	bgte 8d1c0172 <__PROG_SIZE_FOR_CORE_+0x8d0c0172>
8e000174:	0000      	beq 8e000174 <__impure_ptr+0x4>
	...

8e000178 <_impure_data>:
8e000178:	0000      	beq 8e000178 <_impure_data>
8e00017a:	0000      	beq 8e00017a <_impure_data+0x2>
8e00017c:	0470      	bgte 8e000184 <_impure_data+0xc>
8e00017e:	8e00      	beq 8e00009a <___call_exitprocs+0x5e>
8e000180:	04e0      	b 8e000188 <_impure_data+0x10>
8e000182:	8e00      	beq 8e00009e <___call_exitprocs+0x62>
8e000184:	0550      	bltu 8e00018e <_impure_data+0x16>
8e000186:	8e00      	beq 8e0000a2 <___call_exitprocs+0x66>
	...
8e0001ac:	06a0      	bbeq 8e0001b8 <_impure_data+0x40>
	...
8e000226:	0000      	beq 8e000226 <_impure_data+0xae>
8e000228:	0001      	ldrb r0,[r0,r0]
8e00022a:	0000      	beq 8e00022a <_impure_data+0xb2>
8e00022c:	0000      	beq 8e00022c <_impure_data+0xb4>
8e00022e:	0000      	beq 8e00022e <_impure_data+0xb6>
8e000230:	330e      	asr r1,r4,0x18
8e000232:	abcd 1234 	*unknown*
8e000236:	e66d deec 	*unknown*
8e00023a:	0005      	ldrb r0,[r0],r0
8e00023c:	000b 0000 	*unknown*
	...

Disassembly of section GNU_C_BUILTIN_LIB_RO:

8e0005c0 <__exit>:
8e0005c0:	0fe2      	trap 0x3
8e0005c2:	ffe8 ffff 	b 8e0005c0 <__exit>

Disassembly of section .init:

00000064 <init>:
  64:	d65c 2700 	str lr,[sp],-0x4
  68:	d64c 2400 	ldr lr,[sp,+0x4]
  6c:	b41b 2402 	add sp,sp,16
  70:	194f 0402 	rts

Disassembly of section .text:

00000080 <_main>:
  80:	96fc 0700 	strd r4,[sp],-0x5
  84:	2c8b 0032 	mov r1,0x364
  88:	d4fc 2400 	strd lr,[sp,+0x1]
  8c:	d67c 0400 	strd r6,[sp,+0x4]
  90:	15fc 2400 	strd r8,[sp,+0x3]
  94:	557c 2400 	strd r10,[sp,+0x2]
  98:	0003      	mov r0,0x0
  9a:	200b 1002 	movt r1,0x0
  9e:	0552      	jalr r1
  a0:	3a8b 0022 	mov r1,0x2d4
  a4:	4a0b 0032 	mov r2,0x350
  a8:	200b 1002 	movt r1,0x0
  ac:	0103      	mov r0,0x8
  ae:	400b 1002 	movt r2,0x0
  b2:	0952      	jalr r2
  b4:	4f0b 0032 	mov r2,0x378
  b8:	0103      	mov r0,0x8
  ba:	2003      	mov r1,0x0
  bc:	400b 1002 	movt r2,0x0
  c0:	0952      	jalr r2
  c2:	088b 0002 	mov r0,0x44
  c6:	000b 1002 	movt r0,0x0
  ca:	2044      	ldr r1,[r0]
  cc:	090b 0002 	mov r0,0x48
  d0:	000b 1002 	movt r0,0x0
  d4:	0044      	ldr r0,[r0]
  d6:	2456      	lsl r1,r1,0x2
  d8:	041a      	add r0,r1,r0
  da:	200b 0002 	mov r1,0x0
  de:	605f 2006 	lsl fp,r0,0x2
  e2:	200b 18f2 	movt r1,0x8f00
  e6:	0093      	add r0,r0,1
  e8:	3f0b 2022 	mov r9,0x2f8
  ec:	1e0b 2032 	mov r8,0x3f0
  f0:	f58b 2062 	mov r15,0x6ac
  f4:	ed0b 0042 	mov r7,0x468
  f8:	deeb 0ff2 	mov r6,0xfff7
  fc:	a00b 0002 	mov r5,0x0
 100:	6c9f 240a 	add fp,fp,r1
 104:	421f 2006 	lsl r10,r0,0x10
 108:	8003      	mov r4,0x0
 10a:	200b 3002 	movt r9,0x0
 10e:	000b 3002 	movt r8,0x0
 112:	e00b 3002 	movt r15,0x0
 116:	e00b 1002 	movt r7,0x0
 11a:	dfeb 1ff2 	movt r6,0xffff
 11e:	a02b 1002 	movt r5,0x1
 122:	0003      	mov r0,0x0
 124:	28ef 0402 	mov r1,r10
 128:	055f 0402 	jalr r9
 12c:	0182      	wand
 12e:	01b2      	idle
 130:	008b 0042 	mov r0,0x404
 134:	8c5c 0400 	str r4,[fp]
 138:	01eb 1002 	movt r0,0xf
 13c:	015f 0402 	jalr r8
 140:	435a      	and r2,r0,r6
 142:	080b 0042 	mov r0,0x440
 146:	01eb 1002 	movt r0,0xf
 14a:	28e2      	mov r1,r2
 14c:	5c5c 0400 	str r2,[r15]
 150:	1d52      	jalr r7
 152:	9093      	add r4,r4,1
 154:	12ba      	sub r0,r4,r5
 156:	e610      	bne 122 <_main+0xa2>
 158:	0003      	mov r0,0x0
 15a:	96ec 0400 	ldrd r4,[sp,+0x5]
 15e:	d66c 0400 	ldrd r6,[sp,+0x4]
 162:	15ec 2400 	ldrd r8,[sp,+0x3]
 166:	556c 2400 	ldrd r10,[sp,+0x2]
 16a:	d4ec 2400 	ldrd lr,[sp,+0x1]
 16e:	b41b 2405 	add sp,sp,40
 172:	194f 0402 	rts
 176:	01a2      	nop
	...

00000180 <_epiphany_start>:
 180:	be0b 27f2 	mov sp,0x7ff0
 184:	a00b 3002 	movt sp,0x0
 188:	74ef 2402 	mov fp,sp
 18c:	150b 0062 	mov r0,0x6a8
 190:	000b 1002 	movt r0,0x0
 194:	360b 0062 	mov r1,0x6b0
 198:	200b 1002 	movt r1,0x0
 19c:	4003      	mov r2,0x0
 19e:	6003      	mov r3,0x0
 1a0:	40fc 0200 	strd r2,[r0],+0x1
 1a4:	a43a      	sub r5,r1,r0
 1a6:	fd10      	bne 1a0 <_epiphany_start+0x20>
 1a8:	4e0b 0012 	mov r2,0x170
 1ac:	400b 18e2 	movt r2,0x8e00
 1b0:	4844      	ldr r2,[r2]
 1b2:	300b 0062 	mov r1,0x680
 1b6:	200b 1002 	movt r1,0x0
 1ba:	0a1b 0029 	add r0,r2,332
 1be:	00dc 0100 	str r0,[r0,-0x1]
 1c2:	0023      	mov r0,0x1
 1c4:	097c 0005 	strd r0,[r2,+0x2a]
 1c8:	4c8b 0002 	mov r2,0x64
 1cc:	400b 1002 	movt r2,0x0
 1d0:	0952      	jalr r2
 1d2:	1feb 0ff2 	mov r0,0xffff
 1d6:	050f 0402 	movts imask,r0
 1da:	1d0b 0012 	mov r0,0x1e8
 1de:	000b 1002 	movt r0,0x0
 1e2:	010f 0402 	movts iret,r0
 1e6:	01d2      	rti

000001e8 <RDS>:
 1e8:	0003      	mov r0,0x0
 1ea:	2003      	mov r1,0x0
 1ec:	4003      	mov r2,0x0
 1ee:	700b 0002 	mov r3,0x80
 1f2:	600b 1002 	movt r3,0x0
 1f6:	0d52      	jalr r3
 1f8:	600b 0002 	mov r3,0x0
 1fc:	600b 18e2 	movt r3,0x8e00
 200:	0d52      	jalr r3
 202:	01b2      	idle
	...

00000210 <_deregister_tm_clones>:
 210:	140b 0062 	mov r0,0x6a0
 214:	346b 0062 	mov r1,0x6a3
 218:	000b 1002 	movt r0,0x0
 21c:	200b 1002 	movt r1,0x0
 220:	243a      	sub r1,r1,r0
 222:	473b 0000 	sub r2,r1,6
 226:	0320      	bgtu 22c <_deregister_tm_clones+0x1c>
 228:	194f 0402 	rts
 22c:	200b 0002 	mov r1,0x0
 230:	200b 1002 	movt r1,0x0
 234:	4433      	sub r2,r1,0
 236:	f900      	beq 228 <_deregister_tm_clones+0x18>
 238:	0542      	jr r1
 23a:	01a2      	nop

0000023c <_register_tm_clones>:
 23c:	140b 0062 	mov r0,0x6a0
 240:	340b 0062 	mov r1,0x6a0
 244:	000b 1002 	movt r0,0x0
 248:	200b 1002 	movt r1,0x0
 24c:	243a      	sub r1,r1,r0
 24e:	244e      	asr r1,r1,0x2
 250:	47e6      	lsr r2,r1,0x1f
 252:	289a      	add r1,r2,r1
 254:	242e      	asr r1,r1,0x1
 256:	4433      	sub r2,r1,0
 258:	0310      	bne 25e <_register_tm_clones+0x22>
 25a:	194f 0402 	rts
 25e:	400b 0002 	mov r2,0x0
 262:	400b 1002 	movt r2,0x0
 266:	6833      	sub r3,r2,0
 268:	f900      	beq 25a <_register_tm_clones+0x1e>
 26a:	0942      	jr r2

0000026c <___do_global_dtors_aux>:
 26c:	955c 0700 	str r4,[sp],-0x2
 270:	950b 0062 	mov r4,0x6a8
 274:	800b 1002 	movt r4,0x0
 278:	1004      	ldrb r0,[r4]
 27a:	d5dc 2400 	str lr,[sp,+0x3]
 27e:	2033      	sub r1,r0,0
 280:	0810      	bne 290 <___do_global_dtors_aux+0x24>
 282:	020b 0022 	mov r0,0x210
 286:	000b 1002 	movt r0,0x0
 28a:	0152      	jalr r0
 28c:	0023      	mov r0,0x1
 28e:	1014      	strb r0,[r4]
 290:	d5cc 2400 	ldr lr,[sp,+0x3]
 294:	954c 0400 	ldr r4,[sp,+0x2]
 298:	b41b 2401 	add sp,sp,8
 29c:	194f 0402 	rts

000002a0 <_frame_dummy>:
 2a0:	130b 0062 	mov r0,0x698
 2a4:	000b 1002 	movt r0,0x0
 2a8:	2044      	ldr r1,[r0]
 2aa:	d55c 2700 	str lr,[sp],-0x2
 2ae:	4433      	sub r2,r1,0
 2b0:	0800      	beq 2c0 <_frame_dummy+0x20>
 2b2:	200b 0002 	mov r1,0x0
 2b6:	200b 1002 	movt r1,0x0
 2ba:	4433      	sub r2,r1,0
 2bc:	0200      	beq 2c0 <_frame_dummy+0x20>
 2be:	0552      	jalr r1
 2c0:	078b 0022 	mov r0,0x23c
 2c4:	d54c 2400 	ldr lr,[sp,+0x2]
 2c8:	000b 1002 	movt r0,0x0
 2cc:	b41b 2401 	add sp,sp,8
 2d0:	0142      	jr r0
 2d2:	01a2      	nop

000002d4 <_wand_isr>:
 2d4:	14fc 0500 	strd r0,[sp,-0x1]
 2d8:	0512      	movfs r0,status
 2da:	211f 0402 	movfs r1,iret
 2de:	b41b 24fe 	add sp,sp,-16
 2e2:	0192      	gie
 2e4:	0392      	gid
 2e6:	b41b 2402 	add sp,sp,16
 2ea:	0502      	movts status,r0
 2ec:	210f 0402 	movts iret,r1
 2f0:	14ec 0500 	ldrd r0,[sp,-0x1]
 2f4:	01d2      	rti
 2f6:	01a2      	nop

000002f8 <_e_wait>:
 2f8:	95fc 0700 	strd r4,[sp],-0x3
 2fc:	5c0b 0052 	mov r2,0x5e0
 300:	d6dc 2400 	str lr,[sp,+0x5]
 304:	400b 1002 	movt r2,0x0
 308:	35dc 0400 	str r1,[sp,+0x3]
 30c:	80e2      	mov r4,r0
 30e:	0952      	jalr r2
 310:	510b 0052 	mov r2,0x588
 314:	35cc 0400 	ldr r1,[sp,+0x3]
 318:	400b 1002 	movt r2,0x0
 31c:	10e2      	mov r0,r4
 31e:	0952      	jalr r2
 320:	548b 0052 	mov r2,0x5a4
 324:	10e2      	mov r0,r4
 326:	2023      	mov r1,0x1
 328:	400b 1002 	movt r2,0x0
 32c:	0952      	jalr r2
 32e:	ae8b 0052 	mov r5,0x574
 332:	a00b 1002 	movt r5,0x0
 336:	01a2      	nop
 338:	10e2      	mov r0,r4
 33a:	1552      	jalr r5
 33c:	2033      	sub r1,r0,0
 33e:	fd10      	bne 338 <_e_wait+0x40>
 340:	95ec 0400 	ldrd r4,[sp,+0x3]
 344:	d6cc 2400 	ldr lr,[sp,+0x5]
 348:	b41b 2403 	add sp,sp,24
 34c:	194f 0402 	rts

00000350 <_e_irq_attach>:
 350:	0056      	lsl r0,r0,0x2
 352:	243a      	sub r1,r1,r0
 354:	2426      	lsr r1,r1,0x1
 356:	2516      	lsl r1,r1,0x8
 358:	5d03      	mov r2,0xe8
 35a:	257a      	orr r1,r1,r2
 35c:	2054      	str r1,[r0]
 35e:	194f 0402 	rts
 362:	01a2      	nop

00000364 <_e_irq_global_mask>:
 364:	2033      	sub r1,r0,0
 366:	0410      	bne 36e <_e_irq_global_mask+0xa>
 368:	0192      	gie
 36a:	194f 0402 	rts
 36e:	20b3      	sub r1,r0,1
 370:	fd10      	bne 36a <_e_irq_global_mask+0x6>
 372:	0392      	gid
 374:	194f 0402 	rts

00000378 <_e_irq_mask>:
 378:	957c 0700 	strd r4,[sp],-0x2
 37c:	a4e2      	mov r5,r1
 37e:	80e2      	mov r4,r0
 380:	3e0b 0032 	mov r1,0x3f0
 384:	048b 0042 	mov r0,0x424
 388:	d5dc 2400 	str lr,[sp,+0x3]
 38c:	01eb 1002 	movt r0,0xf
 390:	200b 1002 	movt r1,0x0
 394:	0552      	jalr r1
 396:	40e2      	mov r2,r0
 398:	1433      	sub r0,r5,0
 39a:	1810      	bne 3ca <_e_irq_mask+0x52>
 39c:	2023      	mov r1,0x1
 39e:	1feb 0ff2 	mov r0,0xffff
 3a2:	862a      	lsl r4,r1,r4
 3a4:	1feb 1ff2 	movt r0,0xffff
 3a8:	300a      	eor r1,r4,r0
 3aa:	28da      	and r1,r2,r1
 3ac:	048b 0042 	mov r0,0x424
 3b0:	4d0b 0042 	mov r2,0x468
 3b4:	956c 0400 	ldrd r4,[sp,+0x2]
 3b8:	d5cc 2400 	ldr lr,[sp,+0x3]
 3bc:	01eb 1002 	movt r0,0xf
 3c0:	400b 1002 	movt r2,0x0
 3c4:	b41b 2402 	add sp,sp,16
 3c8:	0942      	jr r2
 3ca:	0023      	mov r0,0x1
 3cc:	222a      	lsl r1,r0,r4
 3ce:	28fa      	orr r1,r2,r1
 3d0:	048b 0042 	mov r0,0x424
 3d4:	4d0b 0042 	mov r2,0x468
 3d8:	956c 0400 	ldrd r4,[sp,+0x2]
 3dc:	d5cc 2400 	ldr lr,[sp,+0x3]
 3e0:	01eb 1002 	movt r0,0xf
 3e4:	400b 1002 	movt r2,0x0
 3e8:	b41b 2402 	add sp,sp,16
 3ec:	0942      	jr r2
 3ee:	01a2      	nop

000003f0 <_e_reg_read>:
 3f0:	40e2      	mov r2,r0
 3f2:	000b 0042 	mov r0,0x400
 3f6:	01eb 1002 	movt r0,0xf
 3fa:	d65c 2700 	str lr,[sp],-0x4
 3fe:	283a      	sub r1,r2,r0
 400:	1d00      	beq 43a <_e_reg_read+0x4a>
 402:	008b 0042 	mov r0,0x404
 406:	01eb 1002 	movt r0,0xf
 40a:	283a      	sub r1,r2,r0
 40c:	2200      	beq 450 <_e_reg_read+0x60>
 40e:	088b 0002 	mov r0,0x44
 412:	290b 0002 	mov r1,0x48
 416:	000b 1002 	movt r0,0x0
 41a:	200b 1002 	movt r1,0x0
 41e:	7d8b 0042 	mov r3,0x4ec
 422:	0044      	ldr r0,[r0]
 424:	2444      	ldr r1,[r1]
 426:	600b 1002 	movt r3,0x0
 42a:	0d52      	jalr r3
 42c:	d64c 2400 	ldr lr,[sp,+0x4]
 430:	0044      	ldr r0,[r0]
 432:	b41b 2402 	add sp,sp,16
 436:	194f 0402 	rts
 43a:	0112      	movfs r0,config
 43c:	15dc 0400 	str r0,[sp,+0x3]
 440:	15cc 0400 	ldr r0,[sp,+0x3]
 444:	d64c 2400 	ldr lr,[sp,+0x4]
 448:	b41b 2402 	add sp,sp,16
 44c:	194f 0402 	rts
 450:	0512      	movfs r0,status
 452:	15dc 0400 	str r0,[sp,+0x3]
 456:	15cc 0400 	ldr r0,[sp,+0x3]
 45a:	d64c 2400 	ldr lr,[sp,+0x4]
 45e:	b41b 2402 	add sp,sp,16
 462:	194f 0402 	rts
 466:	01a2      	nop

00000468 <_e_reg_write>:
 468:	40e2      	mov r2,r0
 46a:	000b 0042 	mov r0,0x400
 46e:	965c 0700 	str r4,[sp],-0x4
 472:	01eb 1002 	movt r0,0xf
 476:	84e2      	mov r4,r1
 478:	35dc 0400 	str r1,[sp,+0x3]
 47c:	d6dc 2400 	str lr,[sp,+0x5]
 480:	283a      	sub r1,r2,r0
 482:	1f00      	beq 4c0 <_e_reg_write+0x58>
 484:	008b 0042 	mov r0,0x404
 488:	01eb 1002 	movt r0,0xf
 48c:	283a      	sub r1,r2,r0
 48e:	2400      	beq 4d6 <_e_reg_write+0x6e>
 490:	088b 0002 	mov r0,0x44
 494:	290b 0002 	mov r1,0x48
 498:	000b 1002 	movt r0,0x0
 49c:	200b 1002 	movt r1,0x0
 4a0:	7d8b 0042 	mov r3,0x4ec
 4a4:	0044      	ldr r0,[r0]
 4a6:	2444      	ldr r1,[r1]
 4a8:	600b 1002 	movt r3,0x0
 4ac:	0d52      	jalr r3
 4ae:	8054      	str r4,[r0]
 4b0:	d6cc 2400 	ldr lr,[sp,+0x5]
 4b4:	964c 0400 	ldr r4,[sp,+0x4]
 4b8:	b41b 2402 	add sp,sp,16
 4bc:	194f 0402 	rts
 4c0:	15cc 0400 	ldr r0,[sp,+0x3]
 4c4:	0102      	movts config,r0
 4c6:	d6cc 2400 	ldr lr,[sp,+0x5]
 4ca:	964c 0400 	ldr r4,[sp,+0x4]
 4ce:	b41b 2402 	add sp,sp,16
 4d2:	194f 0402 	rts
 4d6:	15cc 0400 	ldr r0,[sp,+0x3]
 4da:	0502      	movts status,r0
 4dc:	d6cc 2400 	ldr lr,[sp,+0x5]
 4e0:	964c 0400 	ldr r4,[sp,+0x4]
 4e4:	b41b 2402 	add sp,sp,16
 4e8:	194f 0402 	rts

000004ec <_e_get_global_address>:
 4ec:	600b 0002 	mov r3,0x0
 4f0:	7e0b 1ff2 	movt r3,0xfff0
 4f4:	69da      	and r3,r2,r3
 4f6:	d65c 2700 	str lr,[sp],-0x4
 4fa:	8c3b 2000 	sub r12,r3,0
 4fe:	00ef 4002 	mov r16,r0
 502:	08e2      	mov r0,r2
 504:	2710      	bne 552 <_e_get_global_address+0x66>
 506:	1feb 0ff2 	mov r0,0xffff
 50a:	1feb 1ff2 	movt r0,0xffff
 50e:	840f 200a 	eor r12,r1,r0
 512:	6e3f 008a 	sub r3,r3,r12
 516:	8c6f 2002 	movgt r12,r3
 51a:	901f 240a 	add r12,r12,r0
 51e:	93ef 2406 	lsr r12,r12,0x1f
 522:	703b 0400 	sub r3,r12,0
 526:	1c10      	bne 55e <_e_get_global_address+0x72>
 528:	000f 080a 	eor r0,r16,r0
 52c:	903f 240a 	sub r12,r12,r0
 530:	106f 0402 	movgt r0,r12
 534:	0393      	add r0,r0,-1
 536:	803b 2000 	sub r12,r0,0
 53a:	1280      	blt 55e <_e_get_global_address+0x72>
 53c:	00df 0806 	lsl r0,r16,0x6
 540:	041a      	add r0,r1,r0
 542:	260b 0002 	mov r1,0x30
 546:	200b 1002 	movt r1,0x0
 54a:	6444      	ldr r3,[r1]
 54c:	019a      	add r0,r0,r3
 54e:	0296      	lsl r0,r0,0x14
 550:	017a      	orr r0,r0,r2
 552:	d64c 2400 	ldr lr,[sp,+0x4]
 556:	b41b 2402 	add sp,sp,16
 55a:	194f 0402 	rts
 55e:	0f0b 0062 	mov r0,0x678
 562:	55dc 0400 	str r2,[sp,+0x3]
 566:	000b 1002 	movt r0,0x0
 56a:	0152      	jalr r0
 56c:	55cc 0400 	ldr r2,[sp,+0x3]
 570:	efe0      	b 54e <_e_get_global_address+0x62>
 572:	01a2      	nop

00000574 <_e_ctimer_get>:
 574:	005a      	and r0,r0,r0
 576:	0510      	bne 580 <_ctimer1_get>

00000578 <_ctimer0_get>:
 578:	191f 0402 	movfs r0,ctimer0
 57c:	194f 0402 	rts

00000580 <_ctimer1_get>:
 580:	1d1f 0402 	movfs r0,ctimer1
 584:	194f 0402 	rts

00000588 <_e_ctimer_set>:
 588:	005a      	and r0,r0,r0
 58a:	0710      	bne 598 <_ctimer1_set>

0000058c <_ctimer0_set>:
 58c:	04e2      	mov r0,r1
 58e:	390f 0402 	movts ctimer0,r1
 592:	194f 0402 	rts
 596:	01a2      	nop

00000598 <_ctimer1_set>:
 598:	04e2      	mov r0,r1
 59a:	3d0f 0402 	movts ctimer1,r1
 59e:	194f 0402 	rts
 5a2:	01a2      	nop

000005a4 <_e_ctimer_start>:
 5a4:	005a      	and r0,r0,r0
 5a6:	0f10      	bne 5c4 <_ctimer1_start>

000005a8 <_ctimer0_start>:
 5a8:	6112      	movfs r3,config
 5aa:	01eb 0ff2 	mov r0,0xff0f
 5ae:	1feb 1ff2 	movt r0,0xffff
 5b2:	2496      	lsl r1,r1,0x4
 5b4:	6c5a      	and r3,r3,r0
 5b6:	6102      	movts config,r3
 5b8:	6cfa      	orr r3,r3,r1
 5ba:	6102      	movts config,r3
 5bc:	191f 0402 	movfs r0,ctimer0
 5c0:	194f 0402 	rts

000005c4 <_ctimer1_start>:
 5c4:	6112      	movfs r3,config
 5c6:	1feb 0f02 	mov r0,0xf0ff
 5ca:	1feb 1ff2 	movt r0,0xffff
 5ce:	2516      	lsl r1,r1,0x8
 5d0:	6c5a      	and r3,r3,r0
 5d2:	6102      	movts config,r3
 5d4:	6cfa      	orr r3,r3,r1
 5d6:	6102      	movts config,r3
 5d8:	1d1f 0402 	movfs r0,ctimer1
 5dc:	194f 0402 	rts

000005e0 <_e_ctimer_stop>:
 5e0:	955c 0700 	str r4,[sp],-0x2
 5e4:	d5dc 2400 	str lr,[sp,+0x3]
 5e8:	2033      	sub r1,r0,0
 5ea:	2400      	beq 632 <_e_ctimer_stop+0x52>
 5ec:	000b 0042 	mov r0,0x400
 5f0:	9e0b 0032 	mov r4,0x3f0
 5f4:	800b 1002 	movt r4,0x0
 5f8:	01eb 1002 	movt r0,0xf
 5fc:	1152      	jalr r4
 5fe:	3feb 0f02 	mov r1,0xf0ff
 602:	3feb 1ff2 	movt r1,0xffff
 606:	20da      	and r1,r0,r1
 608:	4d0b 0042 	mov r2,0x468
 60c:	000b 0042 	mov r0,0x400
 610:	01eb 1002 	movt r0,0xf
 614:	400b 1002 	movt r2,0x0
 618:	0952      	jalr r2
 61a:	078b 0042 	mov r0,0x43c
 61e:	30e2      	mov r1,r4
 620:	d5cc 2400 	ldr lr,[sp,+0x3]
 624:	954c 0400 	ldr r4,[sp,+0x2]
 628:	01eb 1002 	movt r0,0xf
 62c:	b41b 2401 	add sp,sp,8
 630:	0542      	jr r1
 632:	000b 0042 	mov r0,0x400
 636:	9e0b 0032 	mov r4,0x3f0
 63a:	800b 1002 	movt r4,0x0
 63e:	01eb 1002 	movt r0,0xf
 642:	1152      	jalr r4
 644:	21eb 0ff2 	mov r1,0xff0f
 648:	3feb 1ff2 	movt r1,0xffff
 64c:	20da      	and r1,r0,r1
 64e:	4d0b 0042 	mov r2,0x468
 652:	000b 0042 	mov r0,0x400
 656:	01eb 1002 	movt r0,0xf
 65a:	400b 1002 	movt r2,0x0
 65e:	0952      	jalr r2
 660:	070b 0042 	mov r0,0x438
 664:	30e2      	mov r1,r4
 666:	d5cc 2400 	ldr lr,[sp,+0x3]
 66a:	954c 0400 	ldr r4,[sp,+0x2]
 66e:	01eb 1002 	movt r0,0xf
 672:	b41b 2401 	add sp,sp,8
 676:	0542      	jr r1

00000678 <_e_get_coreid>:
 678:	051f 0032 	movfs r0,coreid
 67c:	194f 0402 	rts

Disassembly of section .fini:

00000680 <fini>:
 680:	d65c 2700 	str lr,[sp],-0x4
 684:	d64c 2400 	ldr lr,[sp,+0x4]
 688:	b41b 2402 	add sp,sp,16
 68c:	194f 0402 	rts

Disassembly of section .init_array:

00000690 <___frame_dummy_init_array_entry>:
 690:	02a0      	bbeq 694 <___do_global_dtors_aux_fini_array_entry>
	...

Disassembly of section .fini_array:

00000694 <___do_global_dtors_aux_fini_array_entry>:
 694:	026c 0000 	ldrd r0,[r0,+0x4]

Disassembly of section .jcr:

00000698 <___JCR_END__>:
 698:	0000      	beq 698 <___JCR_END__>
	...

Disassembly of section .data:

0000069c <___dso_handle>:
 69c:	0000      	beq 69c <___dso_handle>
	...

Disassembly of section .rodata:

000006a0 <.rodata>:
 6a0:	0043      	mov r0,0x2
 6a2:	0000      	beq 6a2 <___TMC_END__+0x2>
 6a4:	0000      	beq 6a4 <___TMC_END__+0x4>
	...

Disassembly of section .bss:

000006a8 <_completed.4231>:
 6a8:	0000      	beq 6a8 <_completed.4231>
	...

000006ac <_state>:
 6ac:	0000      	beq 6ac <_state>
	...

Disassembly of section .comment:

00000000 <.comment>:
   0:	4347      	fmsub r2,r0,r6
   2:	3a43      	mov r1,0xd2
   4:	2820      	bgtu 54 <_e_emem_config+0x4>
   6:	7045      	ldr r3,[r4],r0
   8:	7069 6168 	*unknown*
   c:	796e      	asr r3,r6,0xb
   e:	7420      	bgtu f6 <_main+0x76>
  10:	6f6f 636c 	*unknown*
  14:	6168 6e69 	bgt dcd2d6 <__PROG_SIZE_FOR_CORE_+0xccd2d6>
  18:	3220      	bgtu 7c <init+0x18>
  1a:	3130      	bgteu 7c <init+0x18>
  1c:	3032      	movgteu r1,r4
  1e:	3231      	strh r1,[r4,r4]
  20:	2030      	bgteu 60 <.normal_start+0x8>
  22:	6228 6975 	bgtu d2eae6 <__PROG_SIZE_FOR_CORE_+0xc2eae6>
  26:	746c 3220 	ldrd fp,[r37],+0x100
  2a:	3130      	bgteu 8c <_main+0xc>
  2c:	3033      	sub r1,r4,0
  2e:	3031      	strh r1,[r4,r0]
  30:	2932 2029 	*unknown*
  34:	2e34      	strh r1,[r3,0x4]
  36:	2e37      	fmadd r1,r3,r4
  38:	2030      	bgteu 78 <init+0x14>
  3a:	3032      	movgteu r1,r4
  3c:	3231      	strh r1,[r4,r4]
  3e:	3130      	bgteu a0 <_main+0x20>
  40:	3032      	movgteu r1,r4
  42:	2820      	bgtu 92 <_main+0x12>
  44:	7865      	ldrd r3,[r6],r0
  46:	6570      	bgte 110 <_main+0x90>
  48:	6972 656d 	*unknown*
  4c:	746e      	asr r3,r5,0x3
  4e:	6c61      	ldrd r3,[r3,r0]
  50:	0029 	ldrh r0,[r0,+r0]
  52:	0000 

Disassembly of section .debug_aranges:

00000000 <.debug_aranges>:
   0:	001c 0000 	strb r0,[r0]
   4:	0002      	moveq r0,r0
   6:	0000      	beq 6 <__NUM_COLS_IN_CHIP_+0x2>
   8:	0000      	beq 8 <__CORE_COL_>
   a:	0004      	ldrb r0,[r0]
   c:	0000      	beq c <__CORE_COL_+0x4>
   e:	0000      	beq e <__CORE_COL_+0x6>
  10:	0000      	beq 10 <__CORE_COL_+0x8>
  12:	8e00      	beq ffffff2e <__exit+0x71fff96e>
  14:	0036      	lsl r0,r0,0x1
	...
  1e:	0000      	beq 1e <__CORE_COL_+0x16>
  20:	0014      	strb r0,[r0]
  22:	0000      	beq 22 <__CORE_ROW_+0x2>
  24:	0002      	moveq r0,r0
  26:	098c 0000 	ldrb r0,[r2,+0x3]
  2a:	0004      	ldrb r0,[r0]
	...
  38:	001c 0000 	strb r0,[r0]
  3c:	0002      	moveq r0,r0
  3e:	12ee      	asr r0,r4,0x17
  40:	0000      	beq 40 <_e_group_config+0x18>
  42:	0004      	ldrb r0,[r0]
  44:	0000      	beq 44 <_e_group_config+0x1c>
  46:	0000      	beq 46 <_e_group_config+0x1e>
  48:	003c 8e00 	strh r32,[r24],+0x0
  4c:	0134      	strh r0,[r0,0x2]
	...

Disassembly of section .debug_info:

00000000 <.debug_info>:
       0:	0988 0000 	blt 12 <__CORE_COL_+0xa>
       4:	0002      	moveq r0,r0
       6:	0000      	beq 6 <__NUM_COLS_IN_CHIP_+0x2>
       8:	0000      	beq 8 <__CORE_COL_>
       a:	0104      	ldrb r0,[r0,0x2]
       c:	032a      	lsl r0,r0,r6
       e:	0000      	beq e <__CORE_COL_+0x6>
      10:	6101      	ldrb r3,[r0,r2]
      12:	0001      	ldrb r0,[r0,r0]
      14:	0000      	beq 14 <__CORE_COL_+0xc>
      16:	0000      	beq 16 <__CORE_COL_+0xe>
      18:	368e      	asr r1,r5,0x14
      1a:	0000      	beq 1a <__CORE_COL_+0x12>
      1c:	008e      	asr r0,r0,0x4
      1e:	0000      	beq 1e <__CORE_COL_+0x16>
      20:	0200      	beq 24 <__CORE_ROW_+0x4>
      22:	0704      	ldrb r0,[r1,0x6]
      24:	004a      	lsr r0,r0,r0
      26:	0000      	beq 26 <__CORE_ROW_+0x6>
      28:	0402      	moveq r0,r1
      2a:	4f07      	fadd r2,r3,r6
      2c:	0000      	beq 2c <_e_group_config+0x4>
      2e:	0200      	beq 32 <_e_group_config+0xa>
      30:	0601      	ldrb r0,[r1,r4]
      32:	0288 0000 	blt 36 <_e_group_config+0xe>
      36:	0102      	movts config,r0
      38:	8608 0002 	beq 544 <_e_get_global_address+0x58>
      3c:	0200      	beq 40 <_e_group_config+0x18>
      3e:	0502      	movts status,r0
      40:	02a2 0000 	*unknown*
      44:	0202 c607 	*unknown*
      48:	0001      	ldrb r0,[r0,r0]
      4a:	0300      	beq 50 <_e_emem_config>
      4c:	0504      	ldrb r0,[r1,0x2]
      4e:	6e69 0074 	*unknown*
      52:	0802      	moveq r0,r2
      54:	8b05      	ldrb r4,[r2],r6
      56:	0000      	beq 56 <_e_emem_config+0x6>
      58:	0200      	beq 5c <.normal_start+0x4>
      5a:	0708 0045 	beq 8a68 <__stack_start_+0xa78>
      5e:	0000      	beq 5e <.normal_start+0x6>
      60:	7404      	ldrb r3,[r5]
      62:	0002      	moveq r0,r0
      64:	0200      	beq 68 <init+0x4>
      66:	4b07      	fadd r2,r2,r6
      68:	0000      	beq 68 <init+0x4>
      6a:	0200      	beq 6e <init+0xa>
      6c:	0504      	ldrb r0,[r1,0x2]
      6e:	0090      	blte 6e <init+0xa>
      70:	0000      	beq 70 <init+0xc>
      72:	6a04      	ldrb r3,[r2,0x4]
      74:	0003      	mov r0,0x0
      76:	0300      	beq 7c <init+0x18>
      78:	6b2c 0000 	ldrh r3,[r2,+0x6]
      7c:	0500      	beq 86 <_main+0x6>
      7e:	0209 0000 	ldrb r0,[r0,+r4]
      82:	6104      	ldrb r3,[r0,0x2]
      84:	2801      	ldrb r1,[r2,r0]
      86:	0000      	beq 86 <_main+0x6>
      88:	0600      	beq 94 <_main+0x14>
      8a:	0304      	ldrb r0,[r0,0x6]
      8c:	a846      	lsr r5,r2,0x2
      8e:	0000      	beq 8e <_main+0xe>
      90:	0700      	beq 9e <_main+0x1e>
      92:	0203      	mov r0,0x10
      94:	0000      	beq 94 <_main+0x14>
      96:	4803      	mov r2,0x40
      98:	007d 0000 	strd r0,[r0],+r0
      9c:	a207      	fadd r5,r0,r4
      9e:	0001      	ldrb r0,[r0,r0]
      a0:	0300      	beq a6 <_main+0x26>
      a2:	a849 0000 	ldr r5,[r2,+r0]
      a6:	0000      	beq a6 <_main+0x26>
      a8:	3608 0000 	beq 114 <_main+0x94>
      ac:	b800      	beq 1c <__CORE_COL_+0x14>
      ae:	0000      	beq ae <_main+0x2e>
      b0:	0900      	beq c2 <_main+0x42>
      b2:	00b8 0000 	bbne b2 <_main+0x32>
      b6:	0003      	mov r0,0x0
      b8:	0402      	moveq r0,r1
      ba:	2f07      	fadd r1,r3,r6
      bc:	0002      	moveq r0,r0
      be:	0a00      	beq d2 <_main+0x52>
      c0:	0308 e443 	beq ffc886c6 <__exit+0x71c88106>
      c4:	0000      	beq c4 <_main+0x44>
      c6:	0b00      	beq dc <_main+0x5c>
      c8:	0354      	str r0,[r0,0x6]
      ca:	0000      	beq ca <_main+0x4a>
      cc:	4503      	mov r2,0x28
      ce:	004b 0000 	*unknown*
      d2:	2302 0b00 	*unknown*
      d6:	035c 0000 	str r0,[r0,+0x6]
      da:	4a03      	mov r2,0x50
      dc:	0089 0000 	ldrb r0,[r0,+r1]
      e0:	2302 0004 	*unknown*
      e4:	ca04      	ldrb r6,[r2,0x4]
      e6:	0002      	moveq r0,r0
      e8:	0300      	beq ee <_main+0x6e>
      ea:	bf4b 0000 	*unknown*
      ee:	0400      	beq f6 <_main+0x76>
      f0:	0133      	sub r0,r0,2
      f2:	0000      	beq f2 <_main+0x72>
      f4:	4f03      	mov r2,0x78
      f6:	0060      	bgt f6 <_main+0x76>
      f8:	0000      	beq f8 <_main+0x78>
      fa:	040c 9c04 	ldrb r32,[r57,+0x20]
      fe:	0003      	mov r0,0x0
     100:	0500      	beq 10a <_main+0x8a>
     102:	2115      	strb r1,[r0],r2
     104:	0000      	beq 104 <_main+0x84>
     106:	0d00      	beq 120 <_main+0xa0>
     108:	0144      	ldr r0,[r0,0x2]
     10a:	0000      	beq 10a <_main+0x8a>
     10c:	0520      	bgtu 116 <_main+0x96>
     10e:	662c 0001 	ldrh r3,[r1,+0xc]
     112:	0b00      	beq 128 <_main+0xa8>
     114:	02eb 0000 	*unknown*
     118:	2e05      	ldrb r1,[r3],r4
     11a:	0166      	lsr r0,r0,0xb
     11c:	0000      	beq 11c <_main+0x9c>
     11e:	2302 0e00 	*unknown*
     122:	6b5f 0500 	*unknown*
     126:	4b2f 0000 	*unknown*
     12a:	0200      	beq 12e <_main+0xae>
     12c:	0423      	mov r0,0x21
     12e:	220b 0003 	*unknown*
     132:	0500      	beq 13c <_main+0xbc>
     134:	4b2f 0000 	*unknown*
     138:	0200      	beq 13c <_main+0xbc>
     13a:	0823      	mov r0,0x41
     13c:	2d0b 0001 	*unknown*
     140:	0500      	beq 14a <_main+0xca>
     142:	4b2f 0000 	*unknown*
     146:	0200      	beq 14a <_main+0xca>
     148:	0c23      	mov r0,0x61
     14a:	e80b 0003 	*unknown*
     14e:	0500      	beq 158 <_main+0xd8>
     150:	4b2f 0000 	*unknown*
     154:	0200      	beq 158 <_main+0xd8>
     156:	1023      	mov r0,0x81
     158:	5f0e      	asr r2,r7,0x18
     15a:	0078 3005 	bgte 600b5a <__PROG_SIZE_FOR_CORE_+0x500b5a>
     15e:	016c 0000 	ldrd r0,[r0,+0x2]
     162:	2302 0018 	*unknown*
     166:	040f 0107 	fadd r0,r1,r16
     16a:	0000      	beq 16a <_main+0xea>
     16c:	fc08 0000 	beq 364 <_e_irq_global_mask>
     170:	7c00      	beq 268 <_register_tm_clones+0x2c>
     172:	0001      	ldrb r0,[r0,r0]
     174:	0900      	beq 186 <_epiphany_start+0x6>
     176:	00b8 0000 	bbne 176 <_main+0xf6>
     17a:	0000      	beq 17a <_main+0xfa>
     17c:	5c0d 0001 	*unknown*
     180:	2800      	beq 1d0 <_epiphany_start+0x50>
     182:	3405      	ldrb r1,[r5],r0
     184:	0207      	fadd r0,r0,r4
     186:	0000      	beq 186 <_epiphany_start+0x6>
     188:	820b 0000 	*unknown*
     18c:	0500      	beq 196 <_epiphany_start+0x16>
     18e:	4b36      	lsl r2,r2,0x19
     190:	0000      	beq 190 <_epiphany_start+0x10>
     192:	0200      	beq 196 <_epiphany_start+0x16>
     194:	0023      	mov r0,0x1
     196:	720b 0003 	*unknown*
     19a:	0500      	beq 1a4 <_epiphany_start+0x24>
     19c:	4b37      	fmadd r2,r2,r6
     19e:	0000      	beq 19e <_epiphany_start+0x1e>
     1a0:	0200      	beq 1a4 <_epiphany_start+0x24>
     1a2:	0423      	mov r0,0x21
     1a4:	a50b 0000 	*unknown*
     1a8:	0500      	beq 1b2 <_epiphany_start+0x32>
     1aa:	4b38 0000 	bgteu 240 <_register_tm_clones+0x4>
     1ae:	0200      	beq 1b2 <_epiphany_start+0x32>
     1b0:	0823      	mov r0,0x41
     1b2:	680b 0004 	*unknown*
     1b6:	0500      	beq 1c0 <_epiphany_start+0x40>
     1b8:	4b39 0000 	strh r2,[r2,+r6]
     1bc:	0200      	beq 1c0 <_epiphany_start+0x40>
     1be:	0c23      	mov r0,0x61
     1c0:	3f0b 0002 	mov r1,0xf8
     1c4:	0500      	beq 1ce <_epiphany_start+0x4e>
     1c6:	4b3a      	sub r2,r2,r6
     1c8:	0000      	beq 1c8 <_epiphany_start+0x48>
     1ca:	0200      	beq 1ce <_epiphany_start+0x4e>
     1cc:	1023      	mov r0,0x81
     1ce:	250b 0002 	mov r1,0x28
     1d2:	0500      	beq 1dc <_epiphany_start+0x5c>
     1d4:	4b3b 0000 	sub r2,r2,6
     1d8:	0200      	beq 1dc <_epiphany_start+0x5c>
     1da:	1423      	mov r0,0xa1
     1dc:	ed0b 0003 	*unknown*
     1e0:	0500      	beq 1ea <RDS+0x2>
     1e2:	4b3c 0000 	strh r2,[r2,+0x6]
     1e6:	0200      	beq 1ea <RDS+0x2>
     1e8:	1823      	mov r0,0xc1
     1ea:	ac0b 0002 	mov r5,0x60
     1ee:	0500      	beq 1f8 <RDS+0x10>
     1f0:	4b3d 0000 	strh r2,[r2],+r6
     1f4:	0200      	beq 1f8 <RDS+0x10>
     1f6:	1c23      	mov r0,0xe1
     1f8:	2f0b 0004 	*unknown*
     1fc:	0500      	beq 206 <RDS+0x1e>
     1fe:	4b3e 0000 	*unknown*
     202:	0200      	beq 206 <RDS+0x1e>
     204:	2023      	mov r1,0x1
     206:	1000      	beq 226 <_deregister_tm_clones+0x16>
     208:	00b4      	strh r0,[r0,0x1]
     20a:	0000      	beq 20a <RDS+0x22>
     20c:	0108 4705 	beq 8e0c0e <__PROG_SIZE_FOR_CORE_+0x7e0c0e>
     210:	0250      	bltu 214 <_deregister_tm_clones+0x4>
     212:	0000      	beq 212 <_deregister_tm_clones+0x2>
     214:	200b 0001 	*unknown*
     218:	0500      	beq 222 <_deregister_tm_clones+0x12>
     21a:	5048 0002 	blteu 6ba <_end+0xa>
     21e:	0200      	beq 222 <_deregister_tm_clones+0x12>
     220:	0023      	mov r0,0x1
     222:	000b 0000 	*unknown*
     226:	0500      	beq 230 <_deregister_tm_clones+0x20>
     228:	5049 0002 	*unknown*
     22c:	0300      	beq 232 <_deregister_tm_clones+0x22>
     22e:	8023      	mov r4,0x1
     230:	0b01      	ldrb r0,[r2,r6]
     232:	038e      	asr r0,r0,0x1c
     234:	0000      	beq 234 <_deregister_tm_clones+0x24>
     236:	4b05      	ldrb r2,[r2],r6
     238:	00fc 0000 	strd r0,[r0,+0x1]
     23c:	2303      	mov r1,0x18
     23e:	0280      	blt 242 <_register_tm_clones+0x6>
     240:	d90b 0000 	*unknown*
     244:	0500      	beq 24e <_register_tm_clones+0x12>
     246:	fc4e      	asr r7,r7,0x2
     248:	0000      	beq 248 <_register_tm_clones+0xc>
     24a:	0300      	beq 250 <_register_tm_clones+0x14>
     24c:	8423      	mov r4,0x21
     24e:	0002      	moveq r0,r0
     250:	fa08 0000 	beq 444 <_e_reg_read+0x54>
     254:	6000      	beq 314 <_e_wait+0x1c>
     256:	0002      	moveq r0,r0
     258:	0900      	beq 26a <_register_tm_clones+0x2e>
     25a:	00b8 0000 	bbne 25a <_register_tm_clones+0x1e>
     25e:	001f 4810 	*unknown*
     262:	0002      	moveq r0,r0
     264:	9000      	beq 184 <_epiphany_start+0x4>
     266:	0501      	ldrb r0,[r1,r2]
     268:	a759 0002 	*unknown*
     26c:	0b00      	beq 282 <___do_global_dtors_aux+0x16>
     26e:	02eb 0000 	*unknown*
     272:	5a05      	ldrb r2,[r6],r4
     274:	02a7      	fmul r0,r0,r5
     276:	0000      	beq 276 <___do_global_dtors_aux+0xa>
     278:	2302 0b00 	*unknown*
     27c:	0303      	mov r0,0x18
     27e:	0000      	beq 27e <___do_global_dtors_aux+0x12>
     280:	5b05      	ldrb r2,[r6],r6
     282:	004b 0000 	*unknown*
     286:	2302 0b04 	*unknown*
     28a:	0128 0000 	bgtu 28c <___do_global_dtors_aux+0x20>
     28e:	5d05      	ldrb r2,[r7],r2
     290:	02ad 0000 	ldrh r0,[r0],+r5
     294:	2302 0b08 	*unknown*
     298:	00b4      	strh r0,[r0,0x1]
     29a:	0000      	beq 29a <___do_global_dtors_aux+0x2e>
     29c:	5e05      	ldrb r2,[r7],r4
     29e:	0207      	fadd r0,r0,r4
     2a0:	0000      	beq 2a0 <_frame_dummy>
     2a2:	2303      	mov r1,0x18
     2a4:	0188 0f00 	blt 1e02a6 <__PROG_SIZE_FOR_CORE_+0xe02a6>
     2a8:	6004      	ldrb r3,[r0]
     2aa:	0002      	moveq r0,r0
     2ac:	0800      	beq 2bc <_frame_dummy+0x1c>
     2ae:	02bf 0000 	*unknown*
     2b2:	02bd 0000 	strh r0,[r0],+r5
     2b6:	b809 0000 	ldrb r5,[r6,+r0]
     2ba:	1f00      	beq 2f8 <_e_wait>
     2bc:	1100      	beq 2de <_wand_isr+0xa>
     2be:	0f01      	ldrb r0,[r3,r6]
     2c0:	bd04      	ldrb r5,[r7,0x2]
     2c2:	0002      	moveq r0,r0
     2c4:	0d00      	beq 2de <_wand_isr+0xa>
     2c6:	02b6      	lsl r0,r0,0x15
     2c8:	0000      	beq 2c8 <_frame_dummy+0x28>
     2ca:	0508 ee69 	beq ffdcd4d4 <__exit+0x71dccf14>
     2ce:	0002      	moveq r0,r0
     2d0:	0b00      	beq 2e6 <_wand_isr+0x12>
     2d2:	009f 0000 	*unknown*
     2d6:	6a05      	ldrb r3,[r2],r4
     2d8:	02ee      	asr r0,r0,0x17
     2da:	0000      	beq 2da <_wand_isr+0x6>
     2dc:	2302 0b00 	*unknown*
     2e0:	000c 0000 	ldrb r0,[r0,+0x0]
     2e4:	6b05      	ldrb r3,[r2],r6
     2e6:	004b 0000 	*unknown*
     2ea:	2302 0004 	*unknown*
     2ee:	040f 0036 	*unknown*
     2f2:	0000      	beq 2f2 <_wand_isr+0x1e>
     2f4:	d50d 0002 	*unknown*
     2f8:	7000      	beq 3d8 <_e_irq_mask+0x60>
     2fa:	a905      	ldrb r5,[r2],r2
     2fc:	044e      	asr r0,r1,0x2
     2fe:	0000      	beq 2fe <_e_wait+0x6>
     300:	5f0e      	asr r2,r7,0x18
     302:	0070      	bgte 302 <_e_wait+0xa>
     304:	aa05      	ldrb r5,[r2],r4
     306:	02ee      	asr r0,r0,0x17
     308:	0000      	beq 308 <_e_wait+0x10>
     30a:	2302 0e00 	*unknown*
     30e:	725f 0500 	*unknown*
     312:	4bab 0000 	*unknown*
     316:	0200      	beq 31a <_e_wait+0x22>
     318:	0423      	mov r0,0x21
     31a:	5f0e      	asr r2,r7,0x18
     31c:	0077      	fabs rd,rn
     31e:	ac05      	ldrb r5,[r3],r0
     320:	004b 0000 	*unknown*
     324:	2302 0b08 	*unknown*
     328:	00d2      	movblte r0,r0
     32a:	0000      	beq 32a <_e_wait+0x32>
     32c:	ad05      	ldrb r5,[r3],r2
     32e:	003d 0000 	strh r0,[r0],+r0
     332:	2302 0b0c 	*unknown*
     336:	01b9 0000 	strh r0,[r0,+r3]
     33a:	ae05      	ldrb r5,[r3],r4
     33c:	003d 0000 	strh r0,[r0],+r0
     340:	2302 0e0e 	*unknown*
     344:	625f 0066 	*unknown*
     348:	af05      	ldrb r5,[r3],r6
     34a:	02c5      	ldr r0,[r0],r5
     34c:	0000      	beq 34c <_e_wait+0x54>
     34e:	2302 0b10 	*unknown*
     352:	005c 0000 	str r0,[r0]
     356:	b005      	ldrb r5,[r4],r0
     358:	004b 0000 	*unknown*
     35c:	2302 0b18 	*unknown*
     360:	00c2      	movblt r0,r0
     362:	0000      	beq 362 <_e_irq_attach+0x12>
     364:	b705      	ldrb r5,[r5],r6
     366:	00fa      	orr r0,r0,r1
     368:	0000      	beq 368 <_e_irq_global_mask+0x4>
     36a:	2302 0b1c 	*unknown*
     36e:	014c 0000 	ldr r0,[r0,+0x2]
     372:	b905      	ldrb r5,[r6],r2
     374:	05de 0000 	*unknown*
     378:	2302 0b20 	*unknown*
     37c:	021e 0000 	*unknown*
     380:	bb05      	ldrb r5,[r6],r6
     382:	060e      	asr r0,r1,0x10
     384:	0000      	beq 384 <_e_irq_mask+0xc>
     386:	2302 0b24 	*unknown*
     38a:	0364      	ldrd r0,[r0,0x6]
     38c:	0000      	beq 38c <_e_irq_mask+0x14>
     38e:	bd05      	ldrb r5,[r7],r2
     390:	0633      	sub r0,r1,-4
     392:	0000      	beq 392 <_e_irq_mask+0x1a>
     394:	2302 0b28 	*unknown*
     398:	0449 0000 	ldr r0,[r1,+r0]
     39c:	be05      	ldrb r5,[r7],r4
     39e:	064e      	asr r0,r1,0x12
     3a0:	0000      	beq 3a0 <_e_irq_mask+0x28>
     3a2:	2302 0e2c 	*unknown*
     3a6:	755f 0062 	*unknown*
     3aa:	c105      	ldrb r6,[r0],r2
     3ac:	02c5      	ldr r0,[r0],r5
     3ae:	0000      	beq 3ae <_e_irq_mask+0x36>
     3b0:	2302 0e30 	*unknown*
     3b4:	755f 0070 	*unknown*
     3b8:	c205      	ldrb r6,[r0],r4
     3ba:	02ee      	asr r0,r0,0x17
     3bc:	0000      	beq 3bc <_e_irq_mask+0x44>
     3be:	2302 0e38 	*unknown*
     3c2:	755f 0072 	*unknown*
     3c6:	c305      	ldrb r6,[r0],r6
     3c8:	004b 0000 	*unknown*
     3cc:	2302 0b3c 	*unknown*
     3d0:	0099 0000 	strb r0,[r0,+r1]
     3d4:	c605      	ldrb r6,[r1],r4
     3d6:	0654      	str r0,[r1,0x4]
     3d8:	0000      	beq 3d8 <_e_irq_mask+0x60>
     3da:	2302 0b40 	*unknown*
     3de:	0421      	ldrh r0,[r1,r0]
     3e0:	0000      	beq 3e0 <_e_irq_mask+0x68>
     3e2:	c705      	ldrb r6,[r1],r6
     3e4:	0664      	ldrd r0,[r1,0x4]
     3e6:	0000      	beq 3e6 <_e_irq_mask+0x6e>
     3e8:	2302 0e43 	*unknown*
     3ec:	6c5f 0062 	*unknown*
     3f0:	ca05      	ldrb r6,[r2],r4
     3f2:	02c5      	ldr r0,[r0],r5
     3f4:	0000      	beq 3f4 <_e_reg_read+0x4>
     3f6:	2302 0b48 	*unknown*
     3fa:	00e8 0000 	b 3fa <_e_reg_read+0xa>
     3fe:	cd05      	ldrb r6,[r3],r2
     400:	004b 0000 	*unknown*
     404:	2302 0b50 	*unknown*
     408:	00f9 0000 	strd r0,[r0,+r1]
     40c:	ce05      	ldrb r6,[r3],r4
     40e:	004b 0000 	*unknown*
     412:	2302 0b54 	*unknown*
     416:	0478 0000 	bgte 41e <_e_reg_read+0x2e>
     41a:	d105      	ldrb r6,[r4],r2
     41c:	046d 0000 	ldrd r0,[r1],+r0
     420:	2302 0b58 	*unknown*
     424:	0210      	bne 428 <_e_reg_read+0x38>
     426:	0000      	beq 426 <_e_reg_read+0x36>
     428:	d505      	ldrb r6,[r5],r2
     42a:	00ef 0000 	*unknown*
     42e:	2302 0b5c 	*unknown*
     432:	02dd 0000 	str r0,[r0],+r5
     436:	d705      	ldrb r6,[r5],r6
     438:	00e4      	ldrd r0,[r0,0x1]
     43a:	0000      	beq 43a <_e_reg_read+0x4a>
     43c:	2302 0b60 	*unknown*
     440:	0216      	lsl r0,r0,0x10
     442:	0000      	beq 442 <_e_reg_read+0x52>
     444:	d805      	ldrb r6,[r6],r0
     446:	004b 0000 	*unknown*
     44a:	2302 0068 	*unknown*
     44e:	0112      	movfs r0,config
     450:	004b 0000 	*unknown*
     454:	046d 0000 	ldrd r0,[r1],+r0
     458:	6d13      	add r3,r3,2
     45a:	0004      	ldrb r0,[r0]
     45c:	1300      	beq 482 <_e_reg_write+0x1a>
     45e:	00fa      	orr r0,r0,r1
     460:	0000      	beq 460 <_e_reg_read+0x70>
     462:	d113      	add r6,r4,2
     464:	0005      	ldrb r0,[r0],r0
     466:	1300      	beq 48c <_e_reg_write+0x24>
     468:	004b 0000 	*unknown*
     46c:	0f00      	beq 48a <_e_reg_write+0x22>
     46e:	7304      	ldrb r3,[r4,0x6]
     470:	0004      	ldrb r0,[r0]
     472:	1400      	beq 49a <_e_reg_write+0x32>
     474:	041a      	add r0,r1,r0
     476:	0000      	beq 476 <_e_reg_write+0xe>
     478:	0448 4405 	blteu 880e80 <__PROG_SIZE_FOR_CORE_+0x780e80>
     47c:	d102      	movts iab,r6
     47e:	0005      	ldrb r0,[r0],r0
     480:	1500      	beq 4aa <_e_reg_write+0x42>
     482:	029b 0000 	add r0,r0,5
     486:	4605      	ldrb r2,[r1],r4
     488:	4b02 0000 	*unknown*
     48c:	0200      	beq 490 <_e_reg_write+0x28>
     48e:	0023      	mov r0,0x1
     490:	e115      	strb r7,[r0],r2
     492:	0000      	beq 492 <_e_reg_write+0x2a>
     494:	0500      	beq 49e <_e_reg_write+0x36>
     496:	024b 06c1 	*unknown*
     49a:	0000      	beq 49a <_e_reg_write+0x32>
     49c:	2302 1504 	*unknown*
     4a0:	01a9 0000 	ldrh r0,[r0,+r3]
     4a4:	4b05      	ldrb r2,[r2],r6
     4a6:	c102      	movts config,r6
     4a8:	0006      	lsr r0,r0,0x0
     4aa:	0200      	beq 4ae <_e_reg_write+0x46>
     4ac:	0823      	mov r0,0x41
     4ae:	3c15      	strb r1,[r7],r0
     4b0:	0001      	ldrb r0,[r0,r0]
     4b2:	0500      	beq 4bc <_e_reg_write+0x54>
     4b4:	024b 06c1 	*unknown*
     4b8:	0000      	beq 4b8 <_e_reg_write+0x50>
     4ba:	2302 150c 	*unknown*
     4be:	02fe 0000 	*unknown*
     4c2:	4d05      	ldrb r2,[r3],r2
     4c4:	4b02 0000 	*unknown*
     4c8:	0200      	beq 4cc <_e_reg_write+0x64>
     4ca:	1023      	mov r0,0x81
     4cc:	1a15      	strb r0,[r6],r4
     4ce:	0000      	beq 4ce <_e_reg_write+0x66>
     4d0:	0500      	beq 4da <_e_reg_write+0x72>
     4d2:	024e      	asr r0,r0,0x12
     4d4:	08dd 0000 	str r0,[r2],+r1
     4d8:	2302 1514 	*unknown*
     4dc:	03c4      	ldr r0,[r0,0x7]
     4de:	0000      	beq 4de <_e_reg_write+0x76>
     4e0:	5005      	ldrb r2,[r4],r0
     4e2:	4b02 0000 	*unknown*
     4e6:	0200      	beq 4ea <_e_reg_write+0x82>
     4e8:	3023      	mov r1,0x81
     4ea:	0815      	strb r0,[r2],r0
     4ec:	0003      	mov r0,0x0
     4ee:	0500      	beq 4f8 <_e_get_global_address+0xc>
     4f0:	0251      	str r0,[r0,r4]
     4f2:	0603      	mov r0,0x30
     4f4:	0000      	beq 4f4 <_e_get_global_address+0x8>
     4f6:	2302 1534 	*unknown*
     4fa:	0250      	bltu 4fe <_e_get_global_address+0x12>
     4fc:	0000      	beq 4fc <_e_get_global_address+0x10>
     4fe:	5305      	ldrb r2,[r4],r6
     500:	4b02 0000 	*unknown*
     504:	0200      	beq 508 <_e_get_global_address+0x1c>
     506:	3823      	mov r1,0xc1
     508:	1815      	strb r0,[r6],r0
     50a:	0003      	mov r0,0x0
     50c:	0500      	beq 516 <_e_get_global_address+0x2a>
     50e:	0255      	str r0,[r0],r4
     510:	08f9 0000 	strd r0,[r2,+r1]
     514:	2302 153c 	*unknown*
     518:	01fb 0000 	*unknown*
     51c:	5805      	ldrb r2,[r6],r0
     51e:	6602 0001 	*unknown*
     522:	0200      	beq 526 <_e_get_global_address+0x3a>
     524:	4023      	mov r2,0x1
     526:	5215      	strb r2,[r4],r4
     528:	0001      	ldrb r0,[r0,r0]
     52a:	0500      	beq 534 <_e_get_global_address+0x48>
     52c:	0259 004b 	*unknown*
     530:	0000      	beq 530 <_e_get_global_address+0x44>
     532:	2302 1544 	*unknown*
     536:	0463      	mov r0,0x23
     538:	0000      	beq 538 <_e_get_global_address+0x4c>
     53a:	5a05      	ldrb r2,[r6],r4
     53c:	6602 0001 	*unknown*
     540:	0200      	beq 544 <_e_get_global_address+0x58>
     542:	4823      	mov r2,0x41
     544:	6a15      	strb r3,[r2],r4
     546:	0002      	moveq r0,r0
     548:	0500      	beq 552 <_e_get_global_address+0x66>
     54a:	025b 08ff 	*unknown*
     54e:	0000      	beq 54e <_e_get_global_address+0x62>
     550:	2302 154c 	*unknown*
     554:	01b1      	strh r0,[r0,r3]
     556:	0000      	beq 556 <_e_get_global_address+0x6a>
     558:	5e05      	ldrb r2,[r7],r4
     55a:	4b02 0000 	*unknown*
     55e:	0200      	beq 562 <_e_get_global_address+0x76>
     560:	5023      	mov r2,0x81
     562:	f115      	strb r7,[r4],r2
     564:	0000      	beq 564 <_e_get_global_address+0x78>
     566:	0500      	beq 570 <_e_get_global_address+0x84>
     568:	025f 05d1 	*unknown*
     56c:	0000      	beq 56c <_e_get_global_address+0x80>
     56e:	2302 1554 	*unknown*
     572:	0294      	strb r0,[r0,0x5]
     574:	0000      	beq 574 <_e_ctimer_get>
     576:	8205      	ldrb r4,[r0],r4
     578:	bb02 0008 	*unknown*
     57c:	0200      	beq 580 <_ctimer1_get>
     57e:	5823      	mov r2,0xc1
     580:	4815      	strb r2,[r2],r0
     582:	0002      	moveq r0,r0
     584:	0500      	beq 58e <_ctimer0_set+0x2>
     586:	0285      	ldrb r0,[r0],r5
     588:	02a7      	fmul r0,r0,r5
     58a:	0000      	beq 58a <_e_ctimer_set+0x2>
     58c:	2303      	mov r1,0x18
     58e:	02c8 d915 	bblt ffb22f92 <__exit+0x71b229d2>
     592:	0001      	ldrb r0,[r0,r0]
     594:	0500      	beq 59e <_ctimer1_set+0x6>
     596:	0286      	lsr r0,r0,0x14
     598:	0260      	bgt 59c <_ctimer1_set+0x4>
     59a:	0000      	beq 59a <_ctimer1_set+0x2>
     59c:	2303      	mov r1,0x18
     59e:	02d0      	bblte 5a2 <_ctimer1_set+0xa>
     5a0:	1015      	strb r0,[r4],r0
     5a2:	0004      	ldrb r0,[r0]
     5a4:	0500      	beq 5ae <_ctimer0_start+0x6>
     5a6:	0289 0911 	*unknown*
     5aa:	0000      	beq 5aa <_ctimer0_start+0x2>
     5ac:	2303      	mov r1,0x18
     5ae:	05e0      	b 5b8 <_ctimer0_start+0x10>
     5b0:	ca15      	strb r6,[r2],r4
     5b2:	0000      	beq 5b2 <_ctimer0_start+0xa>
     5b4:	0500      	beq 5be <_ctimer0_start+0x16>
     5b6:	028e      	asr r0,r0,0x14
     5b8:	0680      	blt 5c4 <_ctimer1_start>
     5ba:	0000      	beq 5ba <_ctimer0_start+0x12>
     5bc:	2303      	mov r1,0x18
     5be:	05e8 af15 	b ff5e2fc8 <__exit+0x715e2a08>
     5c2:	0000      	beq 5c2 <_ctimer0_start+0x1a>
     5c4:	0500      	beq 5ce <_ctimer1_start+0xa>
     5c6:	028f 091d 	*unknown*
     5ca:	0000      	beq 5ca <_ctimer1_start+0x6>
     5cc:	2303      	mov r1,0x18
     5ce:	05f8 0f00 	bl 1e05d8 <__PROG_SIZE_FOR_CORE_+0xe05d8>
     5d2:	d704      	ldrb r6,[r5,0x6]
     5d4:	0005      	ldrb r0,[r0],r0
     5d6:	0200      	beq 5da <_ctimer1_start+0x16>
     5d8:	0801      	ldrb r0,[r2,r0]
     5da:	028f 0000 	*unknown*
     5de:	040f 044e 	*unknown*
     5e2:	0000      	beq 5e2 <_e_ctimer_stop+0x2>
     5e4:	0112      	movfs r0,config
     5e6:	004b 0000 	*unknown*
     5ea:	0603      	mov r0,0x30
     5ec:	0000      	beq 5ec <_e_ctimer_stop+0xc>
     5ee:	6d13      	add r3,r3,2
     5f0:	0004      	ldrb r0,[r0]
     5f2:	1300      	beq 618 <_e_ctimer_stop+0x38>
     5f4:	00fa      	orr r0,r0,r1
     5f6:	0000      	beq 5f6 <_e_ctimer_stop+0x16>
     5f8:	0313      	add r0,r0,-2
     5fa:	0006      	lsr r0,r0,0x0
     5fc:	1300      	beq 622 <_e_ctimer_stop+0x42>
     5fe:	004b 0000 	*unknown*
     602:	0f00      	beq 620 <_e_ctimer_stop+0x40>
     604:	0904      	ldrb r0,[r2,0x2]
     606:	0006      	lsr r0,r0,0x0
     608:	1600      	beq 634 <_e_ctimer_stop+0x54>
     60a:	05d7      	float r0,r1
     60c:	0000      	beq 60c <_e_ctimer_stop+0x2c>
     60e:	040f 05e4 	*unknown*
     612:	0000      	beq 612 <_e_ctimer_stop+0x32>
     614:	0112      	movfs r0,config
     616:	0072      	movgte r0,r0
     618:	0000      	beq 618 <_e_ctimer_stop+0x38>
     61a:	0633      	sub r0,r1,-4
     61c:	0000      	beq 61c <_e_ctimer_stop+0x3c>
     61e:	6d13      	add r3,r3,2
     620:	0004      	ldrb r0,[r0]
     622:	1300      	beq 648 <_e_ctimer_stop+0x68>
     624:	00fa      	orr r0,r0,r1
     626:	0000      	beq 626 <_e_ctimer_stop+0x46>
     628:	7213      	add r3,r4,-4
     62a:	0000      	beq 62a <_e_ctimer_stop+0x4a>
     62c:	1300      	beq 652 <_e_ctimer_stop+0x72>
     62e:	004b 0000 	*unknown*
     632:	0f00      	beq 650 <_e_ctimer_stop+0x70>
     634:	1404      	ldrb r0,[r5]
     636:	0006      	lsr r0,r0,0x0
     638:	1200      	beq 65c <_e_ctimer_stop+0x7c>
     63a:	4b01      	ldrb r2,[r2,r6]
     63c:	0000      	beq 63c <_e_ctimer_stop+0x5c>
     63e:	4e00      	beq 6da <_end+0x2a>
     640:	0006      	lsr r0,r0,0x0
     642:	1300      	beq 668 <_e_ctimer_stop+0x88>
     644:	046d 0000 	ldrd r0,[r1],+r0
     648:	fa13      	add r7,r6,-4
     64a:	0000      	beq 64a <_e_ctimer_stop+0x6a>
     64c:	0000      	beq 64c <_e_ctimer_stop+0x6c>
     64e:	040f 0639 	*unknown*
     652:	0000      	beq 652 <_e_ctimer_stop+0x72>
     654:	3608 0000 	beq 6c0 <_end+0x10>
     658:	6400      	beq 720 <_end+0x70>
     65a:	0006      	lsr r0,r0,0x0
     65c:	0900      	beq 66e <_e_ctimer_stop+0x8e>
     65e:	00b8 0000 	bbne 65e <_e_ctimer_stop+0x7e>
     662:	0002      	moveq r0,r0
     664:	3608 0000 	beq 6d0 <_end+0x20>
     668:	7400      	beq 750 <_end+0xa0>
     66a:	0006      	lsr r0,r0,0x0
     66c:	0900      	beq 67e <_e_get_coreid+0x6>
     66e:	00b8 0000 	bbne 66e <_e_ctimer_stop+0x8e>
     672:	0000      	beq 672 <_e_ctimer_stop+0x92>
     674:	c305      	ldrb r6,[r0],r6
     676:	0002      	moveq r0,r0
     678:	0500      	beq 682 <fini+0x2>
     67a:	0111      	strb r0,[r0,r2]
     67c:	02f4      	strd r0,[r0,0x5]
     67e:	0000      	beq 67e <_e_get_coreid+0x6>
     680:	f717      	fsub r7,r5,r6
     682:	0003      	mov r0,0x0
     684:	1000      	beq 6a4 <___TMC_END__+0x4>
     686:	1505      	ldrb r0,[r5],r2
     688:	bb01      	ldrb r5,[r6,r6]
     68a:	0006      	lsr r0,r0,0x0
     68c:	1500      	beq 6b6 <_end+0x6>
     68e:	02eb 0000 	*unknown*
     692:	1705      	ldrb r0,[r5],r6
     694:	bb01      	ldrb r5,[r6,r6]
     696:	0006      	lsr r0,r0,0x0
     698:	0200      	beq 69c <___dso_handle>
     69a:	0023      	mov r0,0x1
     69c:	bf15      	strb r5,[r7],r6
     69e:	0001      	ldrb r0,[r0,r0]
     6a0:	0500      	beq 6aa <___bss_start+0x2>
     6a2:	0118 004b 	bne 9ca4 <__stack_start_+0x1cb4>
     6a6:	0000      	beq 6a6 <___TMC_END__+0x6>
     6a8:	2302 1504 	*unknown*
     6ac:	02bd 0000 	strh r0,[r0],+r5
     6b0:	1905      	ldrb r0,[r6],r2
     6b2:	c101      	ldrb r6,[r0,r2]
     6b4:	0006      	lsr r0,r0,0x0
     6b6:	0200      	beq 6ba <_end+0xa>
     6b8:	0823      	mov r0,0x41
     6ba:	0f00      	beq 6d8 <_end+0x28>
     6bc:	8004      	ldrb r4,[r0]
     6be:	0006      	lsr r0,r0,0x0
     6c0:	0f00      	beq 6de <_end+0x2e>
     6c2:	7404      	ldrb r3,[r5]
     6c4:	0006      	lsr r0,r0,0x0
     6c6:	1700      	beq 6f4 <_end+0x44>
     6c8:	0012      	movne r0,r0
     6ca:	0000      	beq 6ca <_end+0x1a>
     6cc:	0510      	bne 6d6 <_end+0x26>
     6ce:	0131      	strh r0,[r0,r2]
     6d0:	0702 0000 	*unknown*
     6d4:	4e15      	strb r2,[r3],r4
     6d6:	0003      	mov r0,0x0
     6d8:	0500      	beq 6e2 <_end+0x32>
     6da:	0132 0702 	*unknown*
     6de:	0000      	beq 6de <_end+0x2e>
     6e0:	2302 1500 	*unknown*
     6e4:	037b 0000 	*unknown*
     6e8:	3305      	ldrb r1,[r4],r6
     6ea:	0201      	ldrb r0,[r0,r4]
     6ec:	0007      	fadd r0,r0,r0
     6ee:	0200      	beq 6f2 <_end+0x42>
     6f0:	0623      	mov r0,0x31
     6f2:	9715      	strb r4,[r5],r6
     6f4:	0003      	mov r0,0x0
     6f6:	0500      	beq 700 <_end+0x50>
     6f8:	0134      	strh r0,[r0,0x2]
     6fa:	0044      	ldr r0,[r0]
     6fc:	0000      	beq 6fc <_end+0x4c>
     6fe:	2302 000c 	*unknown*
     702:	4408 0000 	beq 78a <_end+0xda>
     706:	1200      	beq 72a <_end+0x7a>
     708:	0007      	fadd r0,r0,r0
     70a:	0900      	beq 71c <_end+0x6c>
     70c:	00b8 0000 	bbne 70c <_end+0x5c>
     710:	0002      	moveq r0,r0
     712:	e018 6305 	bne c612d2 <__PROG_SIZE_FOR_CORE_+0xb612d2>
     716:	4302 0008 	*unknown*
     71a:	1500      	beq 744 <_end+0x94>
     71c:	03db 0000 	*unknown*
     720:	6505      	ldrb r3,[r1],r2
     722:	2802      	moveq r1,r2
     724:	0000      	beq 724 <_end+0x74>
     726:	0200      	beq 72a <_end+0x7a>
     728:	0023      	mov r0,0x1
     72a:	8115      	strb r4,[r0],r2
     72c:	0003      	mov r0,0x0
     72e:	0500      	beq 738 <_end+0x88>
     730:	0266      	lsr r0,r0,0x13
     732:	05d1      	str r0,[r1,r3]
     734:	0000      	beq 734 <_end+0x84>
     736:	2302 1504 	*unknown*
     73a:	01ee      	asr r0,r0,0xf
     73c:	0000      	beq 73c <_end+0x8c>
     73e:	6705      	ldrb r3,[r1],r6
     740:	4302 0008 	*unknown*
     744:	0200      	beq 748 <_end+0x98>
     746:	0823      	mov r0,0x41
     748:	3a15      	strb r1,[r6],r4
     74a:	0004      	ldrb r0,[r0]
     74c:	0500      	beq 756 <_end+0xa6>
     74e:	0268 017c 	bgt 2ff52 <__stack_start_+0x27f62>
     752:	0000      	beq 752 <_end+0xa2>
     754:	2302 1528 	*unknown*
     758:	025b 0000 	*unknown*
     75c:	6905      	ldrb r3,[r2],r2
     75e:	4b02 0000 	*unknown*
     762:	0200      	beq 766 <_end+0xb6>
     764:	5023      	mov r2,0x81
     766:	e615      	strb r7,[r1],r4
     768:	0002      	moveq r0,r0
     76a:	0500      	beq 774 <_end+0xc4>
     76c:	026a      	asr r0,r0,r4
     76e:	0059 0000 	str r0,[r0,+r0]
     772:	2302 1558 	*unknown*
     776:	0450      	bltu 77e <_end+0xce>
     778:	0000      	beq 778 <_end+0xc8>
     77a:	6b05      	ldrb r3,[r2],r6
     77c:	c702 0006 	*unknown*
     780:	0200      	beq 784 <_end+0xd4>
     782:	6023      	mov r3,0x1
     784:	f115      	strb r7,[r4],r2
     786:	0002      	moveq r0,r0
     788:	0500      	beq 792 <_end+0xe2>
     78a:	026c 00e4 	ldrd r0,[r0,+0x724]
     78e:	0000      	beq 78e <_end+0xde>
     790:	2302 1570 	*unknown*
     794:	0455      	str r0,[r1],r0
     796:	0000      	beq 796 <_end+0xe6>
     798:	6d05      	ldrb r3,[r3],r2
     79a:	e402      	moveq r7,r1
     79c:	0000      	beq 79c <_end+0xec>
     79e:	0200      	beq 7a2 <_end+0xf2>
     7a0:	7823      	mov r3,0xc1
     7a2:	7415      	strb r3,[r5],r0
     7a4:	0000      	beq 7a4 <_end+0xf4>
     7a6:	0500      	beq 7b0 <_end+0x100>
     7a8:	026e      	asr r0,r0,0x13
     7aa:	00e4      	ldrd r0,[r0,0x1]
     7ac:	0000      	beq 7ac <_end+0xfc>
     7ae:	2303      	mov r1,0x18
     7b0:	0180      	blt 7b2 <_end+0x102>
     7b2:	0615      	strb r0,[r1],r4
     7b4:	0004      	ldrb r0,[r0]
     7b6:	0500      	beq 7c0 <_end+0x110>
     7b8:	026f 0853 	*unknown*
     7bc:	0000      	beq 7bc <_end+0x10c>
     7be:	2303      	mov r1,0x18
     7c0:	0188 e215 	blt ffc431c2 <__exit+0x71c42c02>
     7c4:	0001      	ldrb r0,[r0,r0]
     7c6:	0500      	beq 7d0 <_end+0x120>
     7c8:	0270      	bgte 7cc <_end+0x11c>
     7ca:	0863      	mov r0,0x43
     7cc:	0000      	beq 7cc <_end+0x11c>
     7ce:	2303      	mov r1,0x18
     7d0:	0190      	blte 7d2 <_end+0x122>
     7d2:	a415      	strb r5,[r1],r0
     7d4:	0003      	mov r0,0x0
     7d6:	0500      	beq 7e0 <_end+0x130>
     7d8:	0271      	strd r0,[r0,r4]
     7da:	004b 0000 	*unknown*
     7de:	2303      	mov r1,0x18
     7e0:	01a8 1215 	bbeq 2431e2 <__PROG_SIZE_FOR_CORE_+0x1431e2>
     7e4:	0001      	ldrb r0,[r0,r0]
     7e6:	0500      	beq 7f0 <_end+0x140>
     7e8:	0272 00e4 	*unknown*
     7ec:	0000      	beq 7ec <_end+0x13c>
     7ee:	2303      	mov r1,0x18
     7f0:	01b0      	bbne 7f2 <_end+0x142>
     7f2:	6515      	strb r3,[r1],r2
     7f4:	0000      	beq 7f4 <_end+0x144>
     7f6:	0500      	beq 800 <_end+0x150>
     7f8:	0273 00e4 	*unknown*
     7fc:	0000      	beq 7fc <_end+0x14c>
     7fe:	2303      	mov r1,0x18
     800:	01b8 0115 	bbne 23202 <__stack_start_+0x1b212>
     804:	0001      	ldrb r0,[r0,r0]
     806:	0500      	beq 810 <_end+0x160>
     808:	0274      	strd r0,[r0,0x4]
     80a:	00e4      	ldrd r0,[r0,0x1]
     80c:	0000      	beq 80c <_end+0x15c>
     80e:	2303      	mov r1,0x18
     810:	01c0      	bblt 812 <_end+0x162>
     812:	2515      	strb r1,[r1],r2
     814:	0000      	beq 814 <_end+0x164>
     816:	0500      	beq 820 <_end+0x170>
     818:	0275      	strd r0,[r0],r4
     81a:	00e4      	ldrd r0,[r0,0x1]
     81c:	0000      	beq 81c <_end+0x16c>
     81e:	2303      	mov r1,0x18
     820:	01c8 3415 	bblt 683222 <__PROG_SIZE_FOR_CORE_+0x583222>
     824:	0000      	beq 824 <_end+0x174>
     826:	0500      	beq 830 <_end+0x180>
     828:	0276      	lsl r0,r0,0x13
     82a:	00e4      	ldrd r0,[r0,0x1]
     82c:	0000      	beq 82c <_end+0x17c>
     82e:	2303      	mov r1,0x18
     830:	01d0      	bblte 832 <_end+0x182>
     832:	9915      	strb r4,[r6],r2
     834:	0002      	moveq r0,r0
     836:	0500      	beq 840 <_end+0x190>
     838:	0277      	fabs rd,rn
     83a:	004b 0000 	*unknown*
     83e:	2303      	mov r1,0x18
     840:	01d8 0800 	bblte 100842 <__PROG_SIZE_FOR_CORE_+0x842>
     844:	05d7      	float r0,r1
     846:	0000      	beq 846 <_end+0x196>
     848:	0853 0000 	*unknown*
     84c:	b809 0000 	ldrb r5,[r6,+r0]
     850:	1900      	beq 882 <_end+0x1d2>
     852:	0800      	beq 862 <_end+0x1b2>
     854:	05d7      	float r0,r1
     856:	0000      	beq 856 <_end+0x1a6>
     858:	0863      	mov r0,0x43
     85a:	0000      	beq 85a <_end+0x1aa>
     85c:	b809 0000 	ldrb r5,[r6,+r0]
     860:	0700      	beq 86e <_end+0x1be>
     862:	0800      	beq 872 <_end+0x1c2>
     864:	05d7      	float r0,r1
     866:	0000      	beq 866 <_end+0x1b6>
     868:	0873 0000 	*unknown*
     86c:	b809 0000 	ldrb r5,[r6,+r0]
     870:	1700      	beq 89e <_end+0x1ee>
     872:	1800      	beq 8a2 <_end+0x1f2>
     874:	05f0      	bl 87e <_end+0x1ce>
     876:	027c 089b 	strd r0,[r16,+0x4dc]
     87a:	0000      	beq 87a <_end+0x1ca>
     87c:	3815      	strb r1,[r6],r0
     87e:	0002      	moveq r0,r0
     880:	0500      	beq 88a <_end+0x1da>
     882:	027f 089b 	*unknown*
     886:	0000      	beq 886 <_end+0x1d6>
     888:	2302 1500 	*unknown*
     88c:	03fd 0000 	strd r0,[r0],+r7
     890:	8005      	ldrb r4,[r0],r0
     892:	ab02 0008 	*unknown*
     896:	0200      	beq 89a <_end+0x1ea>
     898:	7823      	mov r3,0xc1
     89a:	0800      	beq 8aa <_end+0x1fa>
     89c:	02ee      	asr r0,r0,0x17
     89e:	0000      	beq 89e <_end+0x1ee>
     8a0:	08ab 0000 	*unknown*
     8a4:	b809 0000 	ldrb r5,[r6,+r0]
     8a8:	1d00      	beq 8e2 <_end+0x232>
     8aa:	0800      	beq 8ba <_end+0x20a>
     8ac:	0028 0000 	bgtu 8ac <_end+0x1fc>
     8b0:	08bb 0000 	sub r0,r2,1
     8b4:	b809 0000 	ldrb r5,[r6,+r0]
     8b8:	1d00      	beq 8f2 <_end+0x242>
     8ba:	1900      	beq 8ec <_end+0x23c>
     8bc:	05f0      	bl 8c6 <_end+0x216>
     8be:	0261      	ldrd r0,[r0,r4]
     8c0:	08dd 0000 	str r0,[r2],+r1
     8c4:	1a1a      	add r0,r6,r4
     8c6:	0004      	ldrb r0,[r0]
     8c8:	0500      	beq 8d2 <_end+0x222>
     8ca:	0278 0712 	bgte e2cce <__HEAP_SIZE_FOR_CORE_+0x62cce>
     8ce:	0000      	beq 8ce <_end+0x21e>
     8d0:	271a      	add r1,r1,r6
     8d2:	0004      	ldrb r0,[r0]
     8d4:	0500      	beq 8de <_end+0x22e>
     8d6:	0281      	ldrb r0,[r0,r5]
     8d8:	0873 0000 	*unknown*
     8dc:	0800      	beq 8ec <_end+0x23c>
     8de:	05d7      	float r0,r1
     8e0:	0000      	beq 8e0 <_end+0x230>
     8e2:	08ed 0000 	ldrd r0,[r2],+r1
     8e6:	b809 0000 	ldrb r5,[r6,+r0]
     8ea:	1800      	beq 91a <_end+0x26a>
     8ec:	1b00      	beq 922 <_end+0x272>
     8ee:	f901      	ldrb r7,[r6,r2]
     8f0:	0008 1300 	beq 2608f0 <__PROG_SIZE_FOR_CORE_+0x1608f0>
     8f4:	046d 0000 	ldrd r0,[r1],+r0
     8f8:	0f00      	beq 916 <_end+0x266>
     8fa:	ed04      	ldrb r7,[r3,0x2]
     8fc:	0008 0f00 	beq 1e08fc <__PROG_SIZE_FOR_CORE_+0xe08fc>
     900:	6604      	ldrb r3,[r1,0x4]
     902:	0001      	ldrb r0,[r0,r0]
     904:	1b00      	beq 93a <_end+0x28a>
     906:	1101      	ldrb r0,[r4,r2]
     908:	0009 1300 	ldrb r0,[r32,+r48]
     90c:	004b 0000 	*unknown*
     910:	0f00      	beq 92e <_end+0x27e>
     912:	1704      	ldrb r0,[r5,0x6]
     914:	0009 0f00 	ldrb r0,[r24,+r48]
     918:	0504      	ldrb r0,[r1,0x2]
     91a:	0009 0800 	ldrb r0,[r16,+r0]
     91e:	0674      	strd r0,[r1,0x4]
     920:	0000      	beq 920 <_end+0x270>
     922:	092d 0000 	ldrh r0,[r2],+r2
     926:	b809 0000 	ldrb r5,[r6,+r0]
     92a:	0200      	beq 92e <_end+0x27e>
     92c:	1c00      	beq 964 <_end+0x2b4>
     92e:	4b01      	ldrb r2,[r2,r6]
     930:	0002      	moveq r0,r0
     932:	0600      	beq 93e <_end+0x28e>
     934:	0150      	bltu 936 <_end+0x286>
     936:	0000      	beq 936 <_end+0x286>
     938:	8e00      	beq 854 <_end+0x1a4>
     93a:	0036      	lsl r0,r0,0x1
     93c:	8e00      	beq 858 <_end+0x1a8>
     93e:	0000      	beq 93e <_end+0x28e>
     940:	0000      	beq 940 <_end+0x290>
     942:	7801      	ldrb r3,[r6,r0]
     944:	0009 1d00 	ldrb r0,[r56,+r16]
     948:	03d6      	lsl r0,r0,0x1e
     94a:	0000      	beq 94a <_end+0x29a>
     94c:	3a01      	ldrb r1,[r6,r4]
     94e:	004b 0000 	*unknown*
     952:	0020      	bgtu 952 <_end+0x2a2>
     954:	0000      	beq 954 <_end+0x2a4>
     956:	161e 0000 	*unknown*
     95a:	6b8e      	asr r3,r2,0x1c
     95c:	0009 1f00 	ldrb r0,[r56,+r48]
     960:	5101      	ldrb r2,[r4,r2]
     962:	3001      	ldrb r1,[r4,r0]
     964:	011f 0250 	*unknown*
     968:	0074      	strd r0,[r0]
     96a:	2000      	beq 9aa <_end+0x2fa>
     96c:	0036      	lsl r0,r0,0x1
     96e:	8e00      	beq 88a <_end+0x1da>
     970:	011f 0250 	*unknown*
     974:	0074      	strd r0,[r0]
     976:	0000      	beq 976 <_end+0x2c6>
     978:	b121      	ldrh r5,[r4,r2]
     97a:	0003      	mov r0,0x0
     97c:	0500      	beq 986 <_end+0x2d6>
     97e:	0333      	sub r0,r0,-2
     980:	0986      	lsr r0,r2,0xc
     982:	0000      	beq 982 <_end+0x2d2>
     984:	0101      	ldrb r0,[r0,r2]
     986:	6d16      	lsl r3,r3,0x8
     988:	0004      	ldrb r0,[r0]
     98a:	0000      	beq 98a <_end+0x2da>
     98c:	095e 0000 	*unknown*
     990:	0002      	moveq r0,r0
     992:	019e 0000 	*unknown*
     996:	0104      	ldrb r0,[r0,0x2]
     998:	032a      	lsl r0,r0,r6
     99a:	0000      	beq 99a <_end+0x2ea>
     99c:	7e01      	ldrb r3,[r7,r4]
     99e:	0004      	ldrb r0,[r0]
     9a0:	9200      	beq 8c4 <_end+0x214>
     9a2:	0001      	ldrb r0,[r0,r0]
     9a4:	0200      	beq 9a8 <_end+0x2f8>
     9a6:	0601      	ldrb r0,[r1,r4]
     9a8:	0288 0000 	blt 9ac <_end+0x2fc>
     9ac:	0102      	movts config,r0
     9ae:	8608 0002 	beq eba <_end+0x80a>
     9b2:	0200      	beq 9b6 <_end+0x306>
     9b4:	0502      	movts status,r0
     9b6:	02a2 0000 	*unknown*
     9ba:	0202 c607 	*unknown*
     9be:	0001      	ldrb r0,[r0,r0]
     9c0:	0300      	beq 9c6 <_end+0x316>
     9c2:	0504      	ldrb r0,[r1,0x2]
     9c4:	6e69 0074 	*unknown*
     9c8:	0402      	moveq r0,r1
     9ca:	4f07      	fadd r2,r3,r6
     9cc:	0000      	beq 9cc <_end+0x31c>
     9ce:	0200      	beq 9d2 <_end+0x322>
     9d0:	0508 008b 	beq 11fda <__stack_start_+0x9fea>
     9d4:	0000      	beq 9d4 <_end+0x324>
     9d6:	0802      	moveq r0,r2
     9d8:	4507      	fadd r2,r1,r2
     9da:	0000      	beq 9da <_end+0x32a>
     9dc:	0400      	beq 9e4 <_end+0x334>
     9de:	0274      	strd r0,[r0,0x4]
     9e0:	0000      	beq 9e0 <_end+0x330>
     9e2:	0701      	ldrb r0,[r1,r6]
     9e4:	0035      	strh r0,[r0],r0
     9e6:	0000      	beq 9e6 <_end+0x336>
     9e8:	0402      	moveq r0,r1
     9ea:	9005      	ldrb r4,[r4],r0
     9ec:	0000      	beq 9ec <_end+0x33c>
     9ee:	0400      	beq 9f6 <_end+0x346>
     9f0:	036a      	asr r0,r0,r6
     9f2:	0000      	beq 9f2 <_end+0x342>
     9f4:	2c02      	moveq r1,r3
     9f6:	005c 0000 	str r0,[r0]
     9fa:	0905      	ldrb r0,[r2],r2
     9fc:	0002      	moveq r0,r0
     9fe:	0300      	beq a04 <_end+0x354>
     a00:	0161      	ldrd r0,[r0,r2]
     a02:	003c 0000 	strh r0,[r0]
     a06:	0406      	lsr r0,r1,0x0
     a08:	4602 0099 	*unknown*
     a0c:	0000      	beq a0c <_end+0x35c>
     a0e:	0307      	fadd r0,r0,r6
     a10:	0002      	moveq r0,r0
     a12:	0200      	beq a16 <_end+0x366>
     a14:	6e48 0000 	blteu af0 <_end+0x440>
     a18:	0700      	beq a26 <_end+0x376>
     a1a:	01a2      	nop
     a1c:	0000      	beq a1c <_end+0x36c>
     a1e:	4902      	movts pc,r2
     a20:	0099 0000 	strb r0,[r0,+r1]
     a24:	0800      	beq a34 <_end+0x384>
     a26:	0020      	bgtu a26 <_end+0x376>
     a28:	0000      	beq a28 <_end+0x378>
     a2a:	00a9 0000 	ldrh r0,[r0,+r1]
     a2e:	a909 0000 	ldrb r5,[r2,+r2]
     a32:	0300      	beq a38 <_end+0x388>
     a34:	0200      	beq a38 <_end+0x388>
     a36:	0704      	ldrb r0,[r1,0x6]
     a38:	022f 0000 	*unknown*
     a3c:	080a      	eor r0,r2,r0
     a3e:	4302 00d5 	*unknown*
     a42:	0000      	beq a42 <_end+0x392>
     a44:	540b 0003 	*unknown*
     a48:	0200      	beq a4c <_end+0x39c>
     a4a:	3545      	ldr r1,[r5],r2
     a4c:	0000      	beq a4c <_end+0x39c>
     a4e:	0200      	beq a52 <_end+0x3a2>
     a50:	0023      	mov r0,0x1
     a52:	5c0b 0003 	*unknown*
     a56:	0200      	beq a5a <_end+0x3aa>
     a58:	7a4a      	lsr r3,r6,r4
     a5a:	0000      	beq a5a <_end+0x3aa>
     a5c:	0200      	beq a60 <_end+0x3b0>
     a5e:	0423      	mov r0,0x21
     a60:	0400      	beq a68 <_end+0x3b8>
     a62:	02ca      	lsr r0,r0,r5
     a64:	0000      	beq a64 <_end+0x3b4>
     a66:	4b02 00b0 	*unknown*
     a6a:	0000      	beq a6a <_end+0x3ba>
     a6c:	3304      	ldrb r1,[r4,0x6]
     a6e:	0001      	ldrb r0,[r0,r0]
     a70:	0200      	beq a74 <_end+0x3c4>
     a72:	514f 0000 	*unknown*
     a76:	0c00      	beq a8e <_end+0x3de>
     a78:	0404      	ldrb r0,[r1]
     a7a:	039c 0000 	strb r0,[r0,+0x7]
     a7e:	1504      	ldrb r0,[r5,0x2]
     a80:	00f8 0000 	bl a80 <_end+0x3d0>
     a84:	0402      	moveq r0,r1
     a86:	4a07      	fadd r2,r2,r4
     a88:	0000      	beq a88 <_end+0x3d8>
     a8a:	0d00      	beq aa4 <_end+0x3f4>
     a8c:	0144      	ldr r0,[r0,0x2]
     a8e:	0000      	beq a8e <_end+0x3de>
     a90:	0420      	bgtu a98 <_end+0x3e8>
     a92:	5e2c 0001 	ldrh r2,[r7,+0xc]
     a96:	0b00      	beq aac <_end+0x3fc>
     a98:	02eb 0000 	*unknown*
     a9c:	2e04      	ldrb r1,[r3,0x4]
     a9e:	015e 0000 	*unknown*
     aa2:	2302 0e00 	*unknown*
     aa6:	6b5f 0400 	*unknown*
     aaa:	352f 0000 	*unknown*
     aae:	0200      	beq ab2 <_end+0x402>
     ab0:	0423      	mov r0,0x21
     ab2:	220b 0003 	*unknown*
     ab6:	0400      	beq abe <_end+0x40e>
     ab8:	352f 0000 	*unknown*
     abc:	0200      	beq ac0 <_end+0x410>
     abe:	0823      	mov r0,0x41
     ac0:	2d0b 0001 	*unknown*
     ac4:	0400      	beq acc <_end+0x41c>
     ac6:	352f 0000 	*unknown*
     aca:	0200      	beq ace <_end+0x41e>
     acc:	0c23      	mov r0,0x61
     ace:	e80b 0003 	*unknown*
     ad2:	0400      	beq ada <_end+0x42a>
     ad4:	352f 0000 	*unknown*
     ad8:	0200      	beq adc <_end+0x42c>
     ada:	1023      	mov r0,0x81
     adc:	5f0e      	asr r2,r7,0x18
     ade:	0078 3004 	bgte 6012de <__PROG_SIZE_FOR_CORE_+0x5012de>
     ae2:	0164      	ldrd r0,[r0,0x2]
     ae4:	0000      	beq ae4 <_end+0x434>
     ae6:	2302 0018 	*unknown*
     aea:	040f 00ff 	*unknown*
     aee:	0000      	beq aee <_end+0x43e>
     af0:	ed08 0000 	beq cca <_end+0x61a>
     af4:	7400      	beq bdc <_end+0x52c>
     af6:	0001      	ldrb r0,[r0,r0]
     af8:	0900      	beq b0a <_end+0x45a>
     afa:	00a9 0000 	ldrh r0,[r0,+r1]
     afe:	0000      	beq afe <_end+0x44e>
     b00:	5c0d 0001 	*unknown*
     b04:	2800      	beq b54 <_end+0x4a4>
     b06:	3404      	ldrb r1,[r5]
     b08:	01ff 0000 	*unknown*
     b0c:	820b 0000 	*unknown*
     b10:	0400      	beq b18 <_end+0x468>
     b12:	3536      	lsl r1,r5,0x9
     b14:	0000      	beq b14 <_end+0x464>
     b16:	0200      	beq b1a <_end+0x46a>
     b18:	0023      	mov r0,0x1
     b1a:	720b 0003 	*unknown*
     b1e:	0400      	beq b26 <_end+0x476>
     b20:	3537      	fmadd r1,r5,r2
     b22:	0000      	beq b22 <_end+0x472>
     b24:	0200      	beq b28 <_end+0x478>
     b26:	0423      	mov r0,0x21
     b28:	a50b 0000 	*unknown*
     b2c:	0400      	beq b34 <_end+0x484>
     b2e:	3538 0000 	bgteu b98 <_end+0x4e8>
     b32:	0200      	beq b36 <_end+0x486>
     b34:	0823      	mov r0,0x41
     b36:	680b 0004 	*unknown*
     b3a:	0400      	beq b42 <_end+0x492>
     b3c:	3539 0000 	strh r1,[r5,+r2]
     b40:	0200      	beq b44 <_end+0x494>
     b42:	0c23      	mov r0,0x61
     b44:	3f0b 0002 	mov r1,0xf8
     b48:	0400      	beq b50 <_end+0x4a0>
     b4a:	353a      	sub r1,r5,r2
     b4c:	0000      	beq b4c <_end+0x49c>
     b4e:	0200      	beq b52 <_end+0x4a2>
     b50:	1023      	mov r0,0x81
     b52:	250b 0002 	mov r1,0x28
     b56:	0400      	beq b5e <_end+0x4ae>
     b58:	353b 0000 	sub r1,r5,2
     b5c:	0200      	beq b60 <_end+0x4b0>
     b5e:	1423      	mov r0,0xa1
     b60:	ed0b 0003 	*unknown*
     b64:	0400      	beq b6c <_end+0x4bc>
     b66:	353c 0000 	strh r1,[r5,+0x2]
     b6a:	0200      	beq b6e <_end+0x4be>
     b6c:	1823      	mov r0,0xc1
     b6e:	ac0b 0002 	mov r5,0x60
     b72:	0400      	beq b7a <_end+0x4ca>
     b74:	353d 0000 	strh r1,[r5],+r2
     b78:	0200      	beq b7c <_end+0x4cc>
     b7a:	1c23      	mov r0,0xe1
     b7c:	2f0b 0004 	*unknown*
     b80:	0400      	beq b88 <_end+0x4d8>
     b82:	353e 0000 	*unknown*
     b86:	0200      	beq b8a <_end+0x4da>
     b88:	2023      	mov r1,0x1
     b8a:	1000      	beq baa <_end+0x4fa>
     b8c:	00b4      	strh r0,[r0,0x1]
     b8e:	0000      	beq b8e <_end+0x4de>
     b90:	0108 4704 	beq 8e1392 <__PROG_SIZE_FOR_CORE_+0x7e1392>
     b94:	0248 0000 	blteu b98 <_end+0x4e8>
     b98:	200b 0001 	*unknown*
     b9c:	0400      	beq ba4 <_end+0x4f4>
     b9e:	4848 0002 	blteu 102e <__HALF_BANK_SIZE_+0x2e>
     ba2:	0200      	beq ba6 <_end+0x4f6>
     ba4:	0023      	mov r0,0x1
     ba6:	000b 0000 	*unknown*
     baa:	0400      	beq bb2 <_end+0x502>
     bac:	4849 0002 	*unknown*
     bb0:	0300      	beq bb6 <_end+0x506>
     bb2:	8023      	mov r4,0x1
     bb4:	0b01      	ldrb r0,[r2,r6]
     bb6:	038e      	asr r0,r0,0x1c
     bb8:	0000      	beq bb8 <_end+0x508>
     bba:	4b04      	ldrb r2,[r2,0x6]
     bbc:	00ed 0000 	ldrd r0,[r0],+r1
     bc0:	2303      	mov r1,0x18
     bc2:	0280      	blt bc6 <_end+0x516>
     bc4:	d90b 0000 	*unknown*
     bc8:	0400      	beq bd0 <_end+0x520>
     bca:	ed4e      	asr r7,r3,0xa
     bcc:	0000      	beq bcc <_end+0x51c>
     bce:	0300      	beq bd4 <_end+0x524>
     bd0:	8423      	mov r4,0x21
     bd2:	0002      	moveq r0,r0
     bd4:	eb08 0000 	beq daa <_end+0x6fa>
     bd8:	5800      	beq c88 <_end+0x5d8>
     bda:	0002      	moveq r0,r0
     bdc:	0900      	beq bee <_end+0x53e>
     bde:	00a9 0000 	ldrh r0,[r0,+r1]
     be2:	001f 4810 	*unknown*
     be6:	0002      	moveq r0,r0
     be8:	9000      	beq b08 <_end+0x458>
     bea:	0401      	ldrb r0,[r1,r0]
     bec:	9f59 0002 	*unknown*
     bf0:	0b00      	beq c06 <_end+0x556>
     bf2:	02eb 0000 	*unknown*
     bf6:	5a04      	ldrb r2,[r6,0x4]
     bf8:	029f 0000 	*unknown*
     bfc:	2302 0b00 	*unknown*
     c00:	0303      	mov r0,0x18
     c02:	0000      	beq c02 <_end+0x552>
     c04:	5b04      	ldrb r2,[r6,0x6]
     c06:	0035      	strh r0,[r0],r0
     c08:	0000      	beq c08 <_end+0x558>
     c0a:	2302 0b04 	*unknown*
     c0e:	0128 0000 	bgtu c10 <_end+0x560>
     c12:	5d04      	ldrb r2,[r7,0x2]
     c14:	02a5      	ldrh r0,[r0],r5
     c16:	0000      	beq c16 <_end+0x566>
     c18:	2302 0b08 	*unknown*
     c1c:	00b4      	strh r0,[r0,0x1]
     c1e:	0000      	beq c1e <_end+0x56e>
     c20:	5e04      	ldrb r2,[r7,0x4]
     c22:	01ff 0000 	*unknown*
     c26:	2303      	mov r1,0x18
     c28:	0188 0f00 	blt 1e0c2a <__PROG_SIZE_FOR_CORE_+0xe0c2a>
     c2c:	5804      	ldrb r2,[r6]
     c2e:	0002      	moveq r0,r0
     c30:	0800      	beq c40 <_end+0x590>
     c32:	02b7      	fmadd r0,r0,r5
     c34:	0000      	beq c34 <_end+0x584>
     c36:	02b5      	strh r0,[r0],r5
     c38:	0000      	beq c38 <_end+0x588>
     c3a:	a909 0000 	ldrb r5,[r2,+r2]
     c3e:	1f00      	beq c7c <_end+0x5cc>
     c40:	1100      	beq c62 <_end+0x5b2>
     c42:	0f01      	ldrb r0,[r3,r6]
     c44:	b504      	ldrb r5,[r5,0x2]
     c46:	0002      	moveq r0,r0
     c48:	0d00      	beq c62 <_end+0x5b2>
     c4a:	02b6      	lsl r0,r0,0x15
     c4c:	0000      	beq c4c <_end+0x59c>
     c4e:	0408 e669 	beq ffccde56 <__exit+0x71ccd896>
     c52:	0002      	moveq r0,r0
     c54:	0b00      	beq c6a <_end+0x5ba>
     c56:	009f 0000 	*unknown*
     c5a:	6a04      	ldrb r3,[r2,0x4]
     c5c:	02e6      	lsr r0,r0,0x17
     c5e:	0000      	beq c5e <_end+0x5ae>
     c60:	2302 0b00 	*unknown*
     c64:	000c 0000 	ldrb r0,[r0,+0x0]
     c68:	6b04      	ldrb r3,[r2,0x6]
     c6a:	0035      	strh r0,[r0],r0
     c6c:	0000      	beq c6c <_end+0x5bc>
     c6e:	2302 0004 	*unknown*
     c72:	040f 0020 	*unknown*
     c76:	0000      	beq c76 <_end+0x5c6>
     c78:	d50d 0002 	*unknown*
     c7c:	7000      	beq d5c <_end+0x6ac>
     c7e:	a904      	ldrb r5,[r2,0x2]
     c80:	0446      	lsr r0,r1,0x2
     c82:	0000      	beq c82 <_end+0x5d2>
     c84:	5f0e      	asr r2,r7,0x18
     c86:	0070      	bgte c86 <_end+0x5d6>
     c88:	aa04      	ldrb r5,[r2,0x4]
     c8a:	02e6      	lsr r0,r0,0x17
     c8c:	0000      	beq c8c <_end+0x5dc>
     c8e:	2302 0e00 	*unknown*
     c92:	725f 0400 	*unknown*
     c96:	35ab 0000 	*unknown*
     c9a:	0200      	beq c9e <_end+0x5ee>
     c9c:	0423      	mov r0,0x21
     c9e:	5f0e      	asr r2,r7,0x18
     ca0:	0077      	fabs rd,rn
     ca2:	ac04      	ldrb r5,[r3]
     ca4:	0035      	strh r0,[r0],r0
     ca6:	0000      	beq ca6 <_end+0x5f6>
     ca8:	2302 0b08 	*unknown*
     cac:	00d2      	movblte r0,r0
     cae:	0000      	beq cae <_end+0x5fe>
     cb0:	ad04      	ldrb r5,[r3,0x2]
     cb2:	0027      	fmul r0,r0,r0
     cb4:	0000      	beq cb4 <_end+0x604>
     cb6:	2302 0b0c 	*unknown*
     cba:	01b9 0000 	strh r0,[r0,+r3]
     cbe:	ae04      	ldrb r5,[r3,0x4]
     cc0:	0027      	fmul r0,r0,r0
     cc2:	0000      	beq cc2 <_end+0x612>
     cc4:	2302 0e0e 	*unknown*
     cc8:	625f 0066 	*unknown*
     ccc:	af04      	ldrb r5,[r3,0x6]
     cce:	02bd 0000 	strh r0,[r0],+r5
     cd2:	2302 0b10 	*unknown*
     cd6:	005c 0000 	str r0,[r0]
     cda:	b004      	ldrb r5,[r4]
     cdc:	0035      	strh r0,[r0],r0
     cde:	0000      	beq cde <_end+0x62e>
     ce0:	2302 0b18 	*unknown*
     ce4:	00c2      	movblt r0,r0
     ce6:	0000      	beq ce6 <_end+0x636>
     ce8:	b704      	ldrb r5,[r5,0x6]
     cea:	00eb 0000 	*unknown*
     cee:	2302 0b1c 	*unknown*
     cf2:	014c 0000 	ldr r0,[r0,+0x2]
     cf6:	b904      	ldrb r5,[r6,0x2]
     cf8:	05d6      	lsl r0,r1,0xe
     cfa:	0000      	beq cfa <_end+0x64a>
     cfc:	2302 0b20 	*unknown*
     d00:	021e 0000 	*unknown*
     d04:	bb04      	ldrb r5,[r6,0x6]
     d06:	0606      	lsr r0,r1,0x10
     d08:	0000      	beq d08 <_end+0x658>
     d0a:	2302 0b24 	*unknown*
     d0e:	0364      	ldrd r0,[r0,0x6]
     d10:	0000      	beq d10 <_end+0x660>
     d12:	bd04      	ldrb r5,[r7,0x2]
     d14:	062b 0000 	*unknown*
     d18:	2302 0b28 	*unknown*
     d1c:	0449 0000 	ldr r0,[r1,+r0]
     d20:	be04      	ldrb r5,[r7,0x4]
     d22:	0646      	lsr r0,r1,0x12
     d24:	0000      	beq d24 <_end+0x674>
     d26:	2302 0e2c 	*unknown*
     d2a:	755f 0062 	*unknown*
     d2e:	c104      	ldrb r6,[r0,0x2]
     d30:	02bd 0000 	strh r0,[r0],+r5
     d34:	2302 0e30 	*unknown*
     d38:	755f 0070 	*unknown*
     d3c:	c204      	ldrb r6,[r0,0x4]
     d3e:	02e6      	lsr r0,r0,0x17
     d40:	0000      	beq d40 <_end+0x690>
     d42:	2302 0e38 	*unknown*
     d46:	755f 0072 	*unknown*
     d4a:	c304      	ldrb r6,[r0,0x6]
     d4c:	0035      	strh r0,[r0],r0
     d4e:	0000      	beq d4e <_end+0x69e>
     d50:	2302 0b3c 	*unknown*
     d54:	0099 0000 	strb r0,[r0,+r1]
     d58:	c604      	ldrb r6,[r1,0x4]
     d5a:	064c 0000 	ldr r0,[r1,+0x4]
     d5e:	2302 0b40 	*unknown*
     d62:	0421      	ldrh r0,[r1,r0]
     d64:	0000      	beq d64 <_end+0x6b4>
     d66:	c704      	ldrb r6,[r1,0x6]
     d68:	065c 0000 	str r0,[r1,+0x4]
     d6c:	2302 0e43 	*unknown*
     d70:	6c5f 0062 	*unknown*
     d74:	ca04      	ldrb r6,[r2,0x4]
     d76:	02bd 0000 	strh r0,[r0],+r5
     d7a:	2302 0b48 	*unknown*
     d7e:	00e8 0000 	b d7e <_end+0x6ce>
     d82:	cd04      	ldrb r6,[r3,0x2]
     d84:	0035      	strh r0,[r0],r0
     d86:	0000      	beq d86 <_end+0x6d6>
     d88:	2302 0b50 	*unknown*
     d8c:	00f9 0000 	strd r0,[r0,+r1]
     d90:	ce04      	ldrb r6,[r3,0x4]
     d92:	0035      	strh r0,[r0],r0
     d94:	0000      	beq d94 <_end+0x6e4>
     d96:	2302 0b54 	*unknown*
     d9a:	0478 0000 	bgte da2 <_end+0x6f2>
     d9e:	d104      	ldrb r6,[r4,0x2]
     da0:	0465      	ldrd r0,[r1],r0
     da2:	0000      	beq da2 <_end+0x6f2>
     da4:	2302 0b58 	*unknown*
     da8:	0210      	bne dac <_end+0x6fc>
     daa:	0000      	beq daa <_end+0x6fa>
     dac:	d504      	ldrb r6,[r5,0x2]
     dae:	00e0      	b dae <_end+0x6fe>
     db0:	0000      	beq db0 <_end+0x700>
     db2:	2302 0b5c 	*unknown*
     db6:	02dd 0000 	str r0,[r0],+r5
     dba:	d704      	ldrb r6,[r5,0x6]
     dbc:	00d5      	str r0,[r0],r1
     dbe:	0000      	beq dbe <_end+0x70e>
     dc0:	2302 0b60 	*unknown*
     dc4:	0216      	lsl r0,r0,0x10
     dc6:	0000      	beq dc6 <_end+0x716>
     dc8:	d804      	ldrb r6,[r6]
     dca:	0035      	strh r0,[r0],r0
     dcc:	0000      	beq dcc <_end+0x71c>
     dce:	2302 0068 	*unknown*
     dd2:	0112      	movfs r0,config
     dd4:	0035      	strh r0,[r0],r0
     dd6:	0000      	beq dd6 <_end+0x726>
     dd8:	0465      	ldrd r0,[r1],r0
     dda:	0000      	beq dda <_end+0x72a>
     ddc:	6513      	add r3,r1,2
     dde:	0004      	ldrb r0,[r0]
     de0:	1300      	beq e06 <_end+0x756>
     de2:	00eb 0000 	*unknown*
     de6:	c913      	add r6,r2,2
     de8:	0005      	ldrb r0,[r0],r0
     dea:	1300      	beq e10 <_end+0x760>
     dec:	0035      	strh r0,[r0],r0
     dee:	0000      	beq dee <_end+0x73e>
     df0:	0f00      	beq e0e <_end+0x75e>
     df2:	6b04      	ldrb r3,[r2,0x6]
     df4:	0004      	ldrb r0,[r0]
     df6:	1400      	beq e1e <_end+0x76e>
     df8:	041a      	add r0,r1,r0
     dfa:	0000      	beq dfa <_end+0x74a>
     dfc:	0448 4404 	blteu 881604 <__PROG_SIZE_FOR_CORE_+0x781604>
     e00:	c902      	movts pc,r6
     e02:	0005      	ldrb r0,[r0],r0
     e04:	1500      	beq e2e <_end+0x77e>
     e06:	029b 0000 	add r0,r0,5
     e0a:	4604      	ldrb r2,[r1,0x4]
     e0c:	3502      	movts lc,r1
     e0e:	0000      	beq e0e <_end+0x75e>
     e10:	0200      	beq e14 <_end+0x764>
     e12:	0023      	mov r0,0x1
     e14:	e115      	strb r7,[r0],r2
     e16:	0000      	beq e16 <_end+0x766>
     e18:	0400      	beq e20 <_end+0x770>
     e1a:	024b 06b9 	*unknown*
     e1e:	0000      	beq e1e <_end+0x76e>
     e20:	2302 1504 	*unknown*
     e24:	01a9 0000 	ldrh r0,[r0,+r3]
     e28:	4b04      	ldrb r2,[r2,0x6]
     e2a:	b902      	movts ls,r5
     e2c:	0006      	lsr r0,r0,0x0
     e2e:	0200      	beq e32 <_end+0x782>
     e30:	0823      	mov r0,0x41
     e32:	3c15      	strb r1,[r7],r0
     e34:	0001      	ldrb r0,[r0,r0]
     e36:	0400      	beq e3e <_end+0x78e>
     e38:	024b 06b9 	*unknown*
     e3c:	0000      	beq e3c <_end+0x78c>
     e3e:	2302 150c 	*unknown*
     e42:	02fe 0000 	*unknown*
     e46:	4d04      	ldrb r2,[r3,0x2]
     e48:	3502      	movts lc,r1
     e4a:	0000      	beq e4a <_end+0x79a>
     e4c:	0200      	beq e50 <_end+0x7a0>
     e4e:	1023      	mov r0,0x81
     e50:	1a15      	strb r0,[r6],r4
     e52:	0000      	beq e52 <_end+0x7a2>
     e54:	0400      	beq e5c <_end+0x7ac>
     e56:	024e      	asr r0,r0,0x12
     e58:	08d5      	str r0,[r2],r1
     e5a:	0000      	beq e5a <_end+0x7aa>
     e5c:	2302 1514 	*unknown*
     e60:	03c4      	ldr r0,[r0,0x7]
     e62:	0000      	beq e62 <_end+0x7b2>
     e64:	5004      	ldrb r2,[r4]
     e66:	3502      	movts lc,r1
     e68:	0000      	beq e68 <_end+0x7b8>
     e6a:	0200      	beq e6e <_end+0x7be>
     e6c:	3023      	mov r1,0x81
     e6e:	0815      	strb r0,[r2],r0
     e70:	0003      	mov r0,0x0
     e72:	0400      	beq e7a <_end+0x7ca>
     e74:	0251      	str r0,[r0,r4]
     e76:	05fb 0000 	*unknown*
     e7a:	2302 1534 	*unknown*
     e7e:	0250      	bltu e82 <_end+0x7d2>
     e80:	0000      	beq e80 <_end+0x7d0>
     e82:	5304      	ldrb r2,[r4,0x6]
     e84:	3502      	movts lc,r1
     e86:	0000      	beq e86 <_end+0x7d6>
     e88:	0200      	beq e8c <_end+0x7dc>
     e8a:	3823      	mov r1,0xc1
     e8c:	1815      	strb r0,[r6],r0
     e8e:	0003      	mov r0,0x0
     e90:	0400      	beq e98 <_end+0x7e8>
     e92:	0255      	str r0,[r0],r4
     e94:	08f1      	strd r0,[r2,r1]
     e96:	0000      	beq e96 <_end+0x7e6>
     e98:	2302 153c 	*unknown*
     e9c:	01fb 0000 	*unknown*
     ea0:	5804      	ldrb r2,[r6]
     ea2:	5e02 0001 	*unknown*
     ea6:	0200      	beq eaa <_end+0x7fa>
     ea8:	4023      	mov r2,0x1
     eaa:	5215      	strb r2,[r4],r4
     eac:	0001      	ldrb r0,[r0,r0]
     eae:	0400      	beq eb6 <_end+0x806>
     eb0:	0259 0035 	*unknown*
     eb4:	0000      	beq eb4 <_end+0x804>
     eb6:	2302 1544 	*unknown*
     eba:	0463      	mov r0,0x23
     ebc:	0000      	beq ebc <_end+0x80c>
     ebe:	5a04      	ldrb r2,[r6,0x4]
     ec0:	5e02 0001 	*unknown*
     ec4:	0200      	beq ec8 <_end+0x818>
     ec6:	4823      	mov r2,0x41
     ec8:	6a15      	strb r3,[r2],r4
     eca:	0002      	moveq r0,r0
     ecc:	0400      	beq ed4 <_end+0x824>
     ece:	025b 08f7 	*unknown*
     ed2:	0000      	beq ed2 <_end+0x822>
     ed4:	2302 154c 	*unknown*
     ed8:	01b1      	strh r0,[r0,r3]
     eda:	0000      	beq eda <_end+0x82a>
     edc:	5e04      	ldrb r2,[r7,0x4]
     ede:	3502      	movts lc,r1
     ee0:	0000      	beq ee0 <_end+0x830>
     ee2:	0200      	beq ee6 <_end+0x836>
     ee4:	5023      	mov r2,0x81
     ee6:	f115      	strb r7,[r4],r2
     ee8:	0000      	beq ee8 <_end+0x838>
     eea:	0400      	beq ef2 <_end+0x842>
     eec:	025f 05c9 	*unknown*
     ef0:	0000      	beq ef0 <_end+0x840>
     ef2:	2302 1554 	*unknown*
     ef6:	0294      	strb r0,[r0,0x5]
     ef8:	0000      	beq ef8 <_end+0x848>
     efa:	8204      	ldrb r4,[r0,0x4]
     efc:	b302 0008 	*unknown*
     f00:	0200      	beq f04 <_end+0x854>
     f02:	5823      	mov r2,0xc1
     f04:	4815      	strb r2,[r2],r0
     f06:	0002      	moveq r0,r0
     f08:	0400      	beq f10 <_end+0x860>
     f0a:	0285      	ldrb r0,[r0],r5
     f0c:	029f 0000 	*unknown*
     f10:	2303      	mov r1,0x18
     f12:	02c8 d915 	bblt ffb23916 <__exit+0x71b23356>
     f16:	0001      	ldrb r0,[r0,r0]
     f18:	0400      	beq f20 <_end+0x870>
     f1a:	0286      	lsr r0,r0,0x14
     f1c:	0258 0000 	bltu f20 <_end+0x870>
     f20:	2303      	mov r1,0x18
     f22:	02d0      	bblte f26 <_end+0x876>
     f24:	1015      	strb r0,[r4],r0
     f26:	0004      	ldrb r0,[r0]
     f28:	0400      	beq f30 <_end+0x880>
     f2a:	0289 0909 	*unknown*
     f2e:	0000      	beq f2e <_end+0x87e>
     f30:	2303      	mov r1,0x18
     f32:	05e0      	b f3c <_end+0x88c>
     f34:	ca15      	strb r6,[r2],r4
     f36:	0000      	beq f36 <_end+0x886>
     f38:	0400      	beq f40 <_end+0x890>
     f3a:	028e      	asr r0,r0,0x14
     f3c:	0678 0000 	bgte f48 <_end+0x898>
     f40:	2303      	mov r1,0x18
     f42:	05e8 af15 	b ff5e394c <__exit+0x715e338c>
     f46:	0000      	beq f46 <_end+0x896>
     f48:	0400      	beq f50 <_end+0x8a0>
     f4a:	028f 0915 	*unknown*
     f4e:	0000      	beq f4e <_end+0x89e>
     f50:	2303      	mov r1,0x18
     f52:	05f8 0f00 	bl 1e0f5c <__PROG_SIZE_FOR_CORE_+0xe0f5c>
     f56:	cf04      	ldrb r6,[r3,0x6]
     f58:	0005      	ldrb r0,[r0],r0
     f5a:	0200      	beq f5e <_end+0x8ae>
     f5c:	0801      	ldrb r0,[r2,r0]
     f5e:	028f 0000 	*unknown*
     f62:	040f 0446 	*unknown*
     f66:	0000      	beq f66 <_end+0x8b6>
     f68:	0112      	movfs r0,config
     f6a:	0035      	strh r0,[r0],r0
     f6c:	0000      	beq f6c <_end+0x8bc>
     f6e:	05fb 0000 	*unknown*
     f72:	6513      	add r3,r1,2
     f74:	0004      	ldrb r0,[r0]
     f76:	1300      	beq f9c <_end+0x8ec>
     f78:	00eb 0000 	*unknown*
     f7c:	fb13      	add r7,r6,-2
     f7e:	0005      	ldrb r0,[r0],r0
     f80:	1300      	beq fa6 <_end+0x8f6>
     f82:	0035      	strh r0,[r0],r0
     f84:	0000      	beq f84 <_end+0x8d4>
     f86:	0f00      	beq fa4 <_end+0x8f4>
     f88:	0104      	ldrb r0,[r0,0x2]
     f8a:	0006      	lsr r0,r0,0x0
     f8c:	1600      	beq fb8 <_end+0x908>
     f8e:	05cf 0000 	*unknown*
     f92:	040f 05dc 	*unknown*
     f96:	0000      	beq f96 <_end+0x8e6>
     f98:	0112      	movfs r0,config
     f9a:	0063      	mov r0,0x3
     f9c:	0000      	beq f9c <_end+0x8ec>
     f9e:	062b 0000 	*unknown*
     fa2:	6513      	add r3,r1,2
     fa4:	0004      	ldrb r0,[r0]
     fa6:	1300      	beq fcc <_end+0x91c>
     fa8:	00eb 0000 	*unknown*
     fac:	6313      	add r3,r0,-2
     fae:	0000      	beq fae <_end+0x8fe>
     fb0:	1300      	beq fd6 <_end+0x926>
     fb2:	0035      	strh r0,[r0],r0
     fb4:	0000      	beq fb4 <_end+0x904>
     fb6:	0f00      	beq fd4 <_end+0x924>
     fb8:	0c04      	ldrb r0,[r3]
     fba:	0006      	lsr r0,r0,0x0
     fbc:	1200      	beq fe0 <_end+0x930>
     fbe:	3501      	ldrb r1,[r5,r2]
     fc0:	0000      	beq fc0 <_end+0x910>
     fc2:	4600      	beq 104e <__HALF_BANK_SIZE_+0x4e>
     fc4:	0006      	lsr r0,r0,0x0
     fc6:	1300      	beq fec <_end+0x93c>
     fc8:	0465      	ldrd r0,[r1],r0
     fca:	0000      	beq fca <_end+0x91a>
     fcc:	eb13      	add r7,r2,-2
     fce:	0000      	beq fce <_end+0x91e>
     fd0:	0000      	beq fd0 <_end+0x920>
     fd2:	040f 0631 	*unknown*
     fd6:	0000      	beq fd6 <_end+0x926>
     fd8:	2008 0000 	beq 1018 <__HALF_BANK_SIZE_+0x18>
     fdc:	5c00      	beq 1094 <__HALF_BANK_SIZE_+0x94>
     fde:	0006      	lsr r0,r0,0x0
     fe0:	0900      	beq ff2 <_end+0x942>
     fe2:	00a9 0000 	ldrh r0,[r0,+r1]
     fe6:	0002      	moveq r0,r0
     fe8:	2008 0000 	beq 1028 <__HALF_BANK_SIZE_+0x28>
     fec:	6c00      	beq 10c4 <__HALF_BANK_SIZE_+0xc4>
     fee:	0006      	lsr r0,r0,0x0
     ff0:	0900      	beq 1002 <__HALF_BANK_SIZE_+0x2>
     ff2:	00a9 0000 	ldrh r0,[r0,+r1]
     ff6:	0000      	beq ff6 <_end+0x946>
     ff8:	c305      	ldrb r6,[r0],r6
     ffa:	0002      	moveq r0,r0
     ffc:	0400      	beq 1004 <__HALF_BANK_SIZE_+0x4>
     ffe:	0111      	strb r0,[r0,r2]
    1000:	02ec 0000 	ldrd r0,[r0,+0x5]
    1004:	f717      	fsub r7,r5,r6
    1006:	0003      	mov r0,0x0
    1008:	1000      	beq 1028 <__HALF_BANK_SIZE_+0x28>
    100a:	1504      	ldrb r0,[r5,0x2]
    100c:	b301      	ldrb r5,[r4,r6]
    100e:	0006      	lsr r0,r0,0x0
    1010:	1500      	beq 103a <__HALF_BANK_SIZE_+0x3a>
    1012:	02eb 0000 	*unknown*
    1016:	1704      	ldrb r0,[r5,0x6]
    1018:	b301      	ldrb r5,[r4,r6]
    101a:	0006      	lsr r0,r0,0x0
    101c:	0200      	beq 1020 <__HALF_BANK_SIZE_+0x20>
    101e:	0023      	mov r0,0x1
    1020:	bf15      	strb r5,[r7],r6
    1022:	0001      	ldrb r0,[r0,r0]
    1024:	0400      	beq 102c <__HALF_BANK_SIZE_+0x2c>
    1026:	0118 0035 	bne 7a28 <__HALF_BANK_SIZE_+0x6a28>
    102a:	0000      	beq 102a <__HALF_BANK_SIZE_+0x2a>
    102c:	2302 1504 	*unknown*
    1030:	02bd 0000 	strh r0,[r0],+r5
    1034:	1904      	ldrb r0,[r6,0x2]
    1036:	b901      	ldrb r5,[r6,r2]
    1038:	0006      	lsr r0,r0,0x0
    103a:	0200      	beq 103e <__HALF_BANK_SIZE_+0x3e>
    103c:	0823      	mov r0,0x41
    103e:	0f00      	beq 105c <__HALF_BANK_SIZE_+0x5c>
    1040:	7804      	ldrb r3,[r6]
    1042:	0006      	lsr r0,r0,0x0
    1044:	0f00      	beq 1062 <__HALF_BANK_SIZE_+0x62>
    1046:	6c04      	ldrb r3,[r3]
    1048:	0006      	lsr r0,r0,0x0
    104a:	1700      	beq 1078 <__HALF_BANK_SIZE_+0x78>
    104c:	0012      	movne r0,r0
    104e:	0000      	beq 104e <__HALF_BANK_SIZE_+0x4e>
    1050:	0410      	bne 1058 <__HALF_BANK_SIZE_+0x58>
    1052:	0131      	strh r0,[r0,r2]
    1054:	06fa      	orr r0,r1,r5
    1056:	0000      	beq 1056 <__HALF_BANK_SIZE_+0x56>
    1058:	4e15      	strb r2,[r3],r4
    105a:	0003      	mov r0,0x0
    105c:	0400      	beq 1064 <__HALF_BANK_SIZE_+0x64>
    105e:	0132 06fa 	*unknown*
    1062:	0000      	beq 1062 <__HALF_BANK_SIZE_+0x62>
    1064:	2302 1500 	*unknown*
    1068:	037b 0000 	*unknown*
    106c:	3304      	ldrb r1,[r4,0x6]
    106e:	fa01      	ldrb r7,[r6,r4]
    1070:	0006      	lsr r0,r0,0x0
    1072:	0200      	beq 1076 <__HALF_BANK_SIZE_+0x76>
    1074:	0623      	mov r0,0x31
    1076:	9715      	strb r4,[r5],r6
    1078:	0003      	mov r0,0x0
    107a:	0400      	beq 1082 <__HALF_BANK_SIZE_+0x82>
    107c:	0134      	strh r0,[r0,0x2]
    107e:	002e      	asr r0,r0,0x1
    1080:	0000      	beq 1080 <__HALF_BANK_SIZE_+0x80>
    1082:	2302 000c 	*unknown*
    1086:	2e08 0000 	beq 10e2 <__HALF_BANK_SIZE_+0xe2>
    108a:	0a00      	beq 109e <__HALF_BANK_SIZE_+0x9e>
    108c:	0007      	fadd r0,r0,r0
    108e:	0900      	beq 10a0 <__HALF_BANK_SIZE_+0xa0>
    1090:	00a9 0000 	ldrh r0,[r0,+r1]
    1094:	0002      	moveq r0,r0
    1096:	e018 6304 	bne c61a56 <__PROG_SIZE_FOR_CORE_+0xb61a56>
    109a:	3b02 0008 	*unknown*
    109e:	1500      	beq 10c8 <__HALF_BANK_SIZE_+0xc8>
    10a0:	03db 0000 	*unknown*
    10a4:	6504      	ldrb r3,[r1,0x2]
    10a6:	3c02      	moveq r1,r7
    10a8:	0000      	beq 10a8 <__HALF_BANK_SIZE_+0xa8>
    10aa:	0200      	beq 10ae <__HALF_BANK_SIZE_+0xae>
    10ac:	0023      	mov r0,0x1
    10ae:	8115      	strb r4,[r0],r2
    10b0:	0003      	mov r0,0x0
    10b2:	0400      	beq 10ba <__HALF_BANK_SIZE_+0xba>
    10b4:	0266      	lsr r0,r0,0x13
    10b6:	05c9 0000 	ldr r0,[r1,+r3]
    10ba:	2302 1504 	*unknown*
    10be:	01ee      	asr r0,r0,0xf
    10c0:	0000      	beq 10c0 <__HALF_BANK_SIZE_+0xc0>
    10c2:	6704      	ldrb r3,[r1,0x6]
    10c4:	3b02 0008 	*unknown*
    10c8:	0200      	beq 10cc <__HALF_BANK_SIZE_+0xcc>
    10ca:	0823      	mov r0,0x41
    10cc:	3a15      	strb r1,[r6],r4
    10ce:	0004      	ldrb r0,[r0]
    10d0:	0400      	beq 10d8 <__HALF_BANK_SIZE_+0xd8>
    10d2:	0268 0174 	bgt 2f8d6 <__stack_start_+0x278e6>
    10d6:	0000      	beq 10d6 <__HALF_BANK_SIZE_+0xd6>
    10d8:	2302 1528 	*unknown*
    10dc:	025b 0000 	*unknown*
    10e0:	6904      	ldrb r3,[r2,0x2]
    10e2:	3502      	movts lc,r1
    10e4:	0000      	beq 10e4 <__HALF_BANK_SIZE_+0xe4>
    10e6:	0200      	beq 10ea <__HALF_BANK_SIZE_+0xea>
    10e8:	5023      	mov r2,0x81
    10ea:	e615      	strb r7,[r1],r4
    10ec:	0002      	moveq r0,r0
    10ee:	0400      	beq 10f6 <__HALF_BANK_SIZE_+0xf6>
    10f0:	026a      	asr r0,r0,r4
    10f2:	004a      	lsr r0,r0,r0
    10f4:	0000      	beq 10f4 <__HALF_BANK_SIZE_+0xf4>
    10f6:	2302 1558 	*unknown*
    10fa:	0450      	bltu 1102 <__HALF_BANK_SIZE_+0x102>
    10fc:	0000      	beq 10fc <__HALF_BANK_SIZE_+0xfc>
    10fe:	6b04      	ldrb r3,[r2,0x6]
    1100:	bf02 0006 	*unknown*
    1104:	0200      	beq 1108 <__HALF_BANK_SIZE_+0x108>
    1106:	6023      	mov r3,0x1
    1108:	f115      	strb r7,[r4],r2
    110a:	0002      	moveq r0,r0
    110c:	0400      	beq 1114 <__HALF_BANK_SIZE_+0x114>
    110e:	026c 00d5 	ldrd r0,[r0,+0x6ac]
    1112:	0000      	beq 1112 <__HALF_BANK_SIZE_+0x112>
    1114:	2302 1570 	*unknown*
    1118:	0455      	str r0,[r1],r0
    111a:	0000      	beq 111a <__HALF_BANK_SIZE_+0x11a>
    111c:	6d04      	ldrb r3,[r3,0x2]
    111e:	d502      	movts lc,r6
    1120:	0000      	beq 1120 <__HALF_BANK_SIZE_+0x120>
    1122:	0200      	beq 1126 <__HALF_BANK_SIZE_+0x126>
    1124:	7823      	mov r3,0xc1
    1126:	7415      	strb r3,[r5],r0
    1128:	0000      	beq 1128 <__HALF_BANK_SIZE_+0x128>
    112a:	0400      	beq 1132 <__HALF_BANK_SIZE_+0x132>
    112c:	026e      	asr r0,r0,0x13
    112e:	00d5      	str r0,[r0],r1
    1130:	0000      	beq 1130 <__HALF_BANK_SIZE_+0x130>
    1132:	2303      	mov r1,0x18
    1134:	0180      	blt 1136 <__HALF_BANK_SIZE_+0x136>
    1136:	0615      	strb r0,[r1],r4
    1138:	0004      	ldrb r0,[r0]
    113a:	0400      	beq 1142 <__HALF_BANK_SIZE_+0x142>
    113c:	026f 084b 	*unknown*
    1140:	0000      	beq 1140 <__HALF_BANK_SIZE_+0x140>
    1142:	2303      	mov r1,0x18
    1144:	0188 e215 	blt ffc43b46 <__exit+0x71c43586>
    1148:	0001      	ldrb r0,[r0,r0]
    114a:	0400      	beq 1152 <__HALF_BANK_SIZE_+0x152>
    114c:	0270      	bgte 1150 <__HALF_BANK_SIZE_+0x150>
    114e:	085b 0000 	*unknown*
    1152:	2303      	mov r1,0x18
    1154:	0190      	blte 1156 <__HALF_BANK_SIZE_+0x156>
    1156:	a415      	strb r5,[r1],r0
    1158:	0003      	mov r0,0x0
    115a:	0400      	beq 1162 <__HALF_BANK_SIZE_+0x162>
    115c:	0271      	strd r0,[r0,r4]
    115e:	0035      	strh r0,[r0],r0
    1160:	0000      	beq 1160 <__HALF_BANK_SIZE_+0x160>
    1162:	2303      	mov r1,0x18
    1164:	01a8 1215 	bbeq 243b66 <__PROG_SIZE_FOR_CORE_+0x143b66>
    1168:	0001      	ldrb r0,[r0,r0]
    116a:	0400      	beq 1172 <__HALF_BANK_SIZE_+0x172>
    116c:	0272 00d5 	*unknown*
    1170:	0000      	beq 1170 <__HALF_BANK_SIZE_+0x170>
    1172:	2303      	mov r1,0x18
    1174:	01b0      	bbne 1176 <__HALF_BANK_SIZE_+0x176>
    1176:	6515      	strb r3,[r1],r2
    1178:	0000      	beq 1178 <__HALF_BANK_SIZE_+0x178>
    117a:	0400      	beq 1182 <__HALF_BANK_SIZE_+0x182>
    117c:	0273 00d5 	*unknown*
    1180:	0000      	beq 1180 <__HALF_BANK_SIZE_+0x180>
    1182:	2303      	mov r1,0x18
    1184:	01b8 0115 	bbne 23b86 <__stack_start_+0x1bb96>
    1188:	0001      	ldrb r0,[r0,r0]
    118a:	0400      	beq 1192 <__HALF_BANK_SIZE_+0x192>
    118c:	0274      	strd r0,[r0,0x4]
    118e:	00d5      	str r0,[r0],r1
    1190:	0000      	beq 1190 <__HALF_BANK_SIZE_+0x190>
    1192:	2303      	mov r1,0x18
    1194:	01c0      	bblt 1196 <__HALF_BANK_SIZE_+0x196>
    1196:	2515      	strb r1,[r1],r2
    1198:	0000      	beq 1198 <__HALF_BANK_SIZE_+0x198>
    119a:	0400      	beq 11a2 <__HALF_BANK_SIZE_+0x1a2>
    119c:	0275      	strd r0,[r0],r4
    119e:	00d5      	str r0,[r0],r1
    11a0:	0000      	beq 11a0 <__HALF_BANK_SIZE_+0x1a0>
    11a2:	2303      	mov r1,0x18
    11a4:	01c8 3415 	bblt 683ba6 <__PROG_SIZE_FOR_CORE_+0x583ba6>
    11a8:	0000      	beq 11a8 <__HALF_BANK_SIZE_+0x1a8>
    11aa:	0400      	beq 11b2 <__HALF_BANK_SIZE_+0x1b2>
    11ac:	0276      	lsl r0,r0,0x13
    11ae:	00d5      	str r0,[r0],r1
    11b0:	0000      	beq 11b0 <__HALF_BANK_SIZE_+0x1b0>
    11b2:	2303      	mov r1,0x18
    11b4:	01d0      	bblte 11b6 <__HALF_BANK_SIZE_+0x1b6>
    11b6:	9915      	strb r4,[r6],r2
    11b8:	0002      	moveq r0,r0
    11ba:	0400      	beq 11c2 <__HALF_BANK_SIZE_+0x1c2>
    11bc:	0277      	fabs rd,rn
    11be:	0035      	strh r0,[r0],r0
    11c0:	0000      	beq 11c0 <__HALF_BANK_SIZE_+0x1c0>
    11c2:	2303      	mov r1,0x18
    11c4:	01d8 0800 	bblte 1011c6 <__PROG_SIZE_FOR_CORE_+0x11c6>
    11c8:	05cf 0000 	*unknown*
    11cc:	084b 0000 	*unknown*
    11d0:	a909 0000 	ldrb r5,[r2,+r2]
    11d4:	1900      	beq 1206 <__HALF_BANK_SIZE_+0x206>
    11d6:	0800      	beq 11e6 <__HALF_BANK_SIZE_+0x1e6>
    11d8:	05cf 0000 	*unknown*
    11dc:	085b 0000 	*unknown*
    11e0:	a909 0000 	ldrb r5,[r2,+r2]
    11e4:	0700      	beq 11f2 <__HALF_BANK_SIZE_+0x1f2>
    11e6:	0800      	beq 11f6 <__HALF_BANK_SIZE_+0x1f6>
    11e8:	05cf 0000 	*unknown*
    11ec:	086b 0000 	*unknown*
    11f0:	a909 0000 	ldrb r5,[r2,+r2]
    11f4:	1700      	beq 1222 <__HALF_BANK_SIZE_+0x222>
    11f6:	1800      	beq 1226 <__HALF_BANK_SIZE_+0x226>
    11f8:	04f0      	bl 1200 <__HALF_BANK_SIZE_+0x200>
    11fa:	027c 0893 	strd r0,[r16,+0x49c]
    11fe:	0000      	beq 11fe <__HALF_BANK_SIZE_+0x1fe>
    1200:	3815      	strb r1,[r6],r0
    1202:	0002      	moveq r0,r0
    1204:	0400      	beq 120c <__HALF_BANK_SIZE_+0x20c>
    1206:	027f 0893 	*unknown*
    120a:	0000      	beq 120a <__HALF_BANK_SIZE_+0x20a>
    120c:	2302 1500 	*unknown*
    1210:	03fd 0000 	strd r0,[r0],+r7
    1214:	8004      	ldrb r4,[r0]
    1216:	a302 0008 	*unknown*
    121a:	0200      	beq 121e <__HALF_BANK_SIZE_+0x21e>
    121c:	7823      	mov r3,0xc1
    121e:	0800      	beq 122e <__HALF_BANK_SIZE_+0x22e>
    1220:	02e6      	lsr r0,r0,0x17
    1222:	0000      	beq 1222 <__HALF_BANK_SIZE_+0x222>
    1224:	08a3      	mov r0,0x45
    1226:	0000      	beq 1226 <__HALF_BANK_SIZE_+0x226>
    1228:	a909 0000 	ldrb r5,[r2,+r2]
    122c:	1d00      	beq 1266 <__HALF_BANK_SIZE_+0x266>
    122e:	0800      	beq 123e <__HALF_BANK_SIZE_+0x23e>
    1230:	003c 0000 	strh r0,[r0]
    1234:	08b3      	sub r0,r2,1
    1236:	0000      	beq 1236 <__HALF_BANK_SIZE_+0x236>
    1238:	a909 0000 	ldrb r5,[r2,+r2]
    123c:	1d00      	beq 1276 <__HALF_BANK_SIZE_+0x276>
    123e:	1900      	beq 1270 <__HALF_BANK_SIZE_+0x270>
    1240:	04f0      	bl 1248 <__HALF_BANK_SIZE_+0x248>
    1242:	0261      	ldrd r0,[r0,r4]
    1244:	08d5      	str r0,[r2],r1
    1246:	0000      	beq 1246 <__HALF_BANK_SIZE_+0x246>
    1248:	1a1a      	add r0,r6,r4
    124a:	0004      	ldrb r0,[r0]
    124c:	0400      	beq 1254 <__HALF_BANK_SIZE_+0x254>
    124e:	0278 070a 	bgte e2652 <__HEAP_SIZE_FOR_CORE_+0x62652>
    1252:	0000      	beq 1252 <__HALF_BANK_SIZE_+0x252>
    1254:	271a      	add r1,r1,r6
    1256:	0004      	ldrb r0,[r0]
    1258:	0400      	beq 1260 <__HALF_BANK_SIZE_+0x260>
    125a:	0281      	ldrb r0,[r0,r5]
    125c:	086b 0000 	*unknown*
    1260:	0800      	beq 1270 <__HALF_BANK_SIZE_+0x270>
    1262:	05cf 0000 	*unknown*
    1266:	08e5      	ldrd r0,[r2],r1
    1268:	0000      	beq 1268 <__HALF_BANK_SIZE_+0x268>
    126a:	a909 0000 	ldrb r5,[r2,+r2]
    126e:	1800      	beq 129e <__HALF_BANK_SIZE_+0x29e>
    1270:	1b00      	beq 12a6 <__HALF_BANK_SIZE_+0x2a6>
    1272:	f101      	ldrb r7,[r4,r2]
    1274:	0008 1300 	beq 261274 <__PROG_SIZE_FOR_CORE_+0x161274>
    1278:	0465      	ldrd r0,[r1],r0
    127a:	0000      	beq 127a <__HALF_BANK_SIZE_+0x27a>
    127c:	0f00      	beq 129a <__HALF_BANK_SIZE_+0x29a>
    127e:	e504      	ldrb r7,[r1,0x2]
    1280:	0008 0f00 	beq 1e1280 <__PROG_SIZE_FOR_CORE_+0xe1280>
    1284:	5e04      	ldrb r2,[r7,0x4]
    1286:	0001      	ldrb r0,[r0,r0]
    1288:	1b00      	beq 12be <__HALF_BANK_SIZE_+0x2be>
    128a:	0901      	ldrb r0,[r2,r2]
    128c:	0009 1300 	ldrb r0,[r32,+r48]
    1290:	0035      	strh r0,[r0],r0
    1292:	0000      	beq 1292 <__HALF_BANK_SIZE_+0x292>
    1294:	0f00      	beq 12b2 <__HALF_BANK_SIZE_+0x2b2>
    1296:	0f04      	ldrb r0,[r3,0x6]
    1298:	0009 0f00 	ldrb r0,[r24,+r48]
    129c:	fd04      	ldrb r7,[r7,0x2]
    129e:	0008 0800 	beq 10129e <__PROG_SIZE_FOR_CORE_+0x129e>
    12a2:	066c 0000 	ldrd r0,[r1,+0x4]
    12a6:	0925      	ldrh r0,[r2],r2
    12a8:	0000      	beq 12a8 <__HALF_BANK_SIZE_+0x2a8>
    12aa:	a909 0000 	ldrb r5,[r2,+r2]
    12ae:	0200      	beq 12b2 <__HALF_BANK_SIZE_+0x2b2>
    12b0:	1c00      	beq 12e8 <__HALF_BANK_SIZE_+0x2e8>
    12b2:	0472      	movgte r0,r1
    12b4:	0000      	beq 12b4 <__HALF_BANK_SIZE_+0x2b4>
    12b6:	1705      	ldrb r0,[r5],r6
    12b8:	046b 0000 	*unknown*
    12bc:	0305      	ldrb r0,[r0],r6
    12be:	0178 8e00 	bgte ff1c12c0 <__exit+0x711c0d00>
    12c2:	b81d 0003 	*unknown*
    12c6:	0400      	beq 12ce <__HALF_BANK_SIZE_+0x2ce>
    12c8:	0332 0465 	*unknown*
    12cc:	0000      	beq 12cc <__HALF_BANK_SIZE_+0x2cc>
    12ce:	0501      	ldrb r0,[r1,r2]
    12d0:	7003      	mov r3,0x80
    12d2:	0001      	ldrb r0,[r0,r0]
    12d4:	1d8e      	asr r0,r7,0xc
    12d6:	03b1      	strh r0,[r0,r7]
    12d8:	0000      	beq 12d8 <__HALF_BANK_SIZE_+0x2d8>
    12da:	3304      	ldrb r1,[r4,0x6]
    12dc:	5c03      	mov r2,0xe0
    12de:	0009 0100 	ldrb r0,[r0,+r16]
    12e2:	0305      	ldrb r0,[r0],r6
    12e4:	0038 8e00 	bgteu ff1c12e4 <__exit+0x711c0d24>
    12e8:	6516      	lsl r3,r1,0x8
    12ea:	0004      	ldrb r0,[r0]
    12ec:	0000      	beq 12ec <__HALF_BANK_SIZE_+0x2ec>
    12ee:	0a0b 0000 	*unknown*
    12f2:	0002      	moveq r0,r0
    12f4:	02fe 0000 	*unknown*
    12f8:	0104      	ldrb r0,[r0,0x2]
    12fa:	032a      	lsl r0,r0,r6
    12fc:	0000      	beq 12fc <__HALF_BANK_SIZE_+0x2fc>
    12fe:	d701      	ldrb r6,[r5,r6]
    1300:	0004      	ldrb r0,[r0]
    1302:	3c00      	beq 137a <__HALF_BANK_SIZE_+0x37a>
    1304:	0000      	beq 1304 <__HALF_BANK_SIZE_+0x304>
    1306:	708e      	asr r3,r4,0x4
    1308:	0001      	ldrb r0,[r0,r0]
    130a:	998e      	asr r4,r6,0xc
    130c:	0002      	moveq r0,r0
    130e:	0200      	beq 1312 <__HALF_BANK_SIZE_+0x312>
    1310:	0704      	ldrb r0,[r1,0x6]
    1312:	004a      	lsr r0,r0,r0
    1314:	0000      	beq 1314 <__HALF_BANK_SIZE_+0x314>
    1316:	0402      	moveq r0,r1
    1318:	4f07      	fadd r2,r3,r6
    131a:	0000      	beq 131a <__HALF_BANK_SIZE_+0x31a>
    131c:	0200      	beq 1320 <__HALF_BANK_SIZE_+0x320>
    131e:	0601      	ldrb r0,[r1,r4]
    1320:	0288 0000 	blt 1324 <__HALF_BANK_SIZE_+0x324>
    1324:	0102      	movts config,r0
    1326:	8608 0002 	beq 1832 <__HALF_BANK_SIZE_+0x832>
    132a:	0200      	beq 132e <__HALF_BANK_SIZE_+0x32e>
    132c:	0502      	movts status,r0
    132e:	02a2 0000 	*unknown*
    1332:	0202 c607 	*unknown*
    1336:	0001      	ldrb r0,[r0,r0]
    1338:	0300      	beq 133e <__HALF_BANK_SIZE_+0x33e>
    133a:	0504      	ldrb r0,[r1,0x2]
    133c:	6e69 0074 	*unknown*
    1340:	0802      	moveq r0,r2
    1342:	8b05      	ldrb r4,[r2],r6
    1344:	0000      	beq 1344 <__HALF_BANK_SIZE_+0x344>
    1346:	0200      	beq 134a <__HALF_BANK_SIZE_+0x34a>
    1348:	0708 0045 	beq 9d56 <__stack_start_+0x1d66>
    134c:	0000      	beq 134c <__HALF_BANK_SIZE_+0x34c>
    134e:	7404      	ldrb r3,[r5]
    1350:	0002      	moveq r0,r0
    1352:	0200      	beq 1356 <__HALF_BANK_SIZE_+0x356>
    1354:	4b07      	fadd r2,r2,r6
    1356:	0000      	beq 1356 <__HALF_BANK_SIZE_+0x356>
    1358:	0200      	beq 135c <__HALF_BANK_SIZE_+0x35c>
    135a:	0504      	ldrb r0,[r1,0x2]
    135c:	0090      	blte 135c <__HALF_BANK_SIZE_+0x35c>
    135e:	0000      	beq 135e <__HALF_BANK_SIZE_+0x35e>
    1360:	6a04      	ldrb r3,[r2,0x4]
    1362:	0003      	mov r0,0x0
    1364:	0300      	beq 136a <__HALF_BANK_SIZE_+0x36a>
    1366:	6b2c 0000 	ldrh r3,[r2,+0x6]
    136a:	0500      	beq 1374 <__HALF_BANK_SIZE_+0x374>
    136c:	0209 0000 	ldrb r0,[r0,+r4]
    1370:	6104      	ldrb r3,[r0,0x2]
    1372:	2801      	ldrb r1,[r2,r0]
    1374:	0000      	beq 1374 <__HALF_BANK_SIZE_+0x374>
    1376:	0600      	beq 1382 <__HALF_BANK_SIZE_+0x382>
    1378:	0304      	ldrb r0,[r0,0x6]
    137a:	a846      	lsr r5,r2,0x2
    137c:	0000      	beq 137c <__HALF_BANK_SIZE_+0x37c>
    137e:	0700      	beq 138c <__HALF_BANK_SIZE_+0x38c>
    1380:	0203      	mov r0,0x10
    1382:	0000      	beq 1382 <__HALF_BANK_SIZE_+0x382>
    1384:	4803      	mov r2,0x40
    1386:	007d 0000 	strd r0,[r0],+r0
    138a:	a207      	fadd r5,r0,r4
    138c:	0001      	ldrb r0,[r0,r0]
    138e:	0300      	beq 1394 <__HALF_BANK_SIZE_+0x394>
    1390:	a849 0000 	ldr r5,[r2,+r0]
    1394:	0000      	beq 1394 <__HALF_BANK_SIZE_+0x394>
    1396:	3608 0000 	beq 1402 <__HALF_BANK_SIZE_+0x402>
    139a:	b800      	beq 130a <__HALF_BANK_SIZE_+0x30a>
    139c:	0000      	beq 139c <__HALF_BANK_SIZE_+0x39c>
    139e:	0900      	beq 13b0 <__HALF_BANK_SIZE_+0x3b0>
    13a0:	00b8 0000 	bbne 13a0 <__HALF_BANK_SIZE_+0x3a0>
    13a4:	0003      	mov r0,0x0
    13a6:	0402      	moveq r0,r1
    13a8:	2f07      	fadd r1,r3,r6
    13aa:	0002      	moveq r0,r0
    13ac:	0a00      	beq 13c0 <__HALF_BANK_SIZE_+0x3c0>
    13ae:	0308 e443 	beq ffc899b4 <__exit+0x71c893f4>
    13b2:	0000      	beq 13b2 <__HALF_BANK_SIZE_+0x3b2>
    13b4:	0b00      	beq 13ca <__HALF_BANK_SIZE_+0x3ca>
    13b6:	0354      	str r0,[r0,0x6]
    13b8:	0000      	beq 13b8 <__HALF_BANK_SIZE_+0x3b8>
    13ba:	4503      	mov r2,0x28
    13bc:	004b 0000 	*unknown*
    13c0:	2302 0b00 	*unknown*
    13c4:	035c 0000 	str r0,[r0,+0x6]
    13c8:	4a03      	mov r2,0x50
    13ca:	0089 0000 	ldrb r0,[r0,+r1]
    13ce:	2302 0004 	*unknown*
    13d2:	ca04      	ldrb r6,[r2,0x4]
    13d4:	0002      	moveq r0,r0
    13d6:	0300      	beq 13dc <__HALF_BANK_SIZE_+0x3dc>
    13d8:	bf4b 0000 	*unknown*
    13dc:	0400      	beq 13e4 <__HALF_BANK_SIZE_+0x3e4>
    13de:	0133      	sub r0,r0,2
    13e0:	0000      	beq 13e0 <__HALF_BANK_SIZE_+0x3e0>
    13e2:	4f03      	mov r2,0x78
    13e4:	0060      	bgt 13e4 <__HALF_BANK_SIZE_+0x3e4>
    13e6:	0000      	beq 13e6 <__HALF_BANK_SIZE_+0x3e6>
    13e8:	040c 9c04 	ldrb r32,[r57,+0x20]
    13ec:	0003      	mov r0,0x0
    13ee:	0500      	beq 13f8 <__HALF_BANK_SIZE_+0x3f8>
    13f0:	2115      	strb r1,[r0],r2
    13f2:	0000      	beq 13f2 <__HALF_BANK_SIZE_+0x3f2>
    13f4:	0d00      	beq 140e <__HALF_BANK_SIZE_+0x40e>
    13f6:	0144      	ldr r0,[r0,0x2]
    13f8:	0000      	beq 13f8 <__HALF_BANK_SIZE_+0x3f8>
    13fa:	0520      	bgtu 1404 <__HALF_BANK_SIZE_+0x404>
    13fc:	662c 0001 	ldrh r3,[r1,+0xc]
    1400:	0b00      	beq 1416 <__HALF_BANK_SIZE_+0x416>
    1402:	02eb 0000 	*unknown*
    1406:	2e05      	ldrb r1,[r3],r4
    1408:	0166      	lsr r0,r0,0xb
    140a:	0000      	beq 140a <__HALF_BANK_SIZE_+0x40a>
    140c:	2302 0e00 	*unknown*
    1410:	6b5f 0500 	*unknown*
    1414:	4b2f 0000 	*unknown*
    1418:	0200      	beq 141c <__HALF_BANK_SIZE_+0x41c>
    141a:	0423      	mov r0,0x21
    141c:	220b 0003 	*unknown*
    1420:	0500      	beq 142a <__HALF_BANK_SIZE_+0x42a>
    1422:	4b2f 0000 	*unknown*
    1426:	0200      	beq 142a <__HALF_BANK_SIZE_+0x42a>
    1428:	0823      	mov r0,0x41
    142a:	2d0b 0001 	*unknown*
    142e:	0500      	beq 1438 <__HALF_BANK_SIZE_+0x438>
    1430:	4b2f 0000 	*unknown*
    1434:	0200      	beq 1438 <__HALF_BANK_SIZE_+0x438>
    1436:	0c23      	mov r0,0x61
    1438:	e80b 0003 	*unknown*
    143c:	0500      	beq 1446 <__HALF_BANK_SIZE_+0x446>
    143e:	4b2f 0000 	*unknown*
    1442:	0200      	beq 1446 <__HALF_BANK_SIZE_+0x446>
    1444:	1023      	mov r0,0x81
    1446:	5f0e      	asr r2,r7,0x18
    1448:	0078 3005 	bgte 601e48 <__PROG_SIZE_FOR_CORE_+0x501e48>
    144c:	016c 0000 	ldrd r0,[r0,+0x2]
    1450:	2302 0018 	*unknown*
    1454:	040f 0107 	fadd r0,r1,r16
    1458:	0000      	beq 1458 <__HALF_BANK_SIZE_+0x458>
    145a:	fc08 0000 	beq 1652 <__HALF_BANK_SIZE_+0x652>
    145e:	7c00      	beq 1556 <__HALF_BANK_SIZE_+0x556>
    1460:	0001      	ldrb r0,[r0,r0]
    1462:	0900      	beq 1474 <__HALF_BANK_SIZE_+0x474>
    1464:	00b8 0000 	bbne 1464 <__HALF_BANK_SIZE_+0x464>
    1468:	0000      	beq 1468 <__HALF_BANK_SIZE_+0x468>
    146a:	5c0d 0001 	*unknown*
    146e:	2800      	beq 14be <__HALF_BANK_SIZE_+0x4be>
    1470:	3405      	ldrb r1,[r5],r0
    1472:	0207      	fadd r0,r0,r4
    1474:	0000      	beq 1474 <__HALF_BANK_SIZE_+0x474>
    1476:	820b 0000 	*unknown*
    147a:	0500      	beq 1484 <__HALF_BANK_SIZE_+0x484>
    147c:	4b36      	lsl r2,r2,0x19
    147e:	0000      	beq 147e <__HALF_BANK_SIZE_+0x47e>
    1480:	0200      	beq 1484 <__HALF_BANK_SIZE_+0x484>
    1482:	0023      	mov r0,0x1
    1484:	720b 0003 	*unknown*
    1488:	0500      	beq 1492 <__HALF_BANK_SIZE_+0x492>
    148a:	4b37      	fmadd r2,r2,r6
    148c:	0000      	beq 148c <__HALF_BANK_SIZE_+0x48c>
    148e:	0200      	beq 1492 <__HALF_BANK_SIZE_+0x492>
    1490:	0423      	mov r0,0x21
    1492:	a50b 0000 	*unknown*
    1496:	0500      	beq 14a0 <__HALF_BANK_SIZE_+0x4a0>
    1498:	4b38 0000 	bgteu 152e <__HALF_BANK_SIZE_+0x52e>
    149c:	0200      	beq 14a0 <__HALF_BANK_SIZE_+0x4a0>
    149e:	0823      	mov r0,0x41
    14a0:	680b 0004 	*unknown*
    14a4:	0500      	beq 14ae <__HALF_BANK_SIZE_+0x4ae>
    14a6:	4b39 0000 	strh r2,[r2,+r6]
    14aa:	0200      	beq 14ae <__HALF_BANK_SIZE_+0x4ae>
    14ac:	0c23      	mov r0,0x61
    14ae:	3f0b 0002 	mov r1,0xf8
    14b2:	0500      	beq 14bc <__HALF_BANK_SIZE_+0x4bc>
    14b4:	4b3a      	sub r2,r2,r6
    14b6:	0000      	beq 14b6 <__HALF_BANK_SIZE_+0x4b6>
    14b8:	0200      	beq 14bc <__HALF_BANK_SIZE_+0x4bc>
    14ba:	1023      	mov r0,0x81
    14bc:	250b 0002 	mov r1,0x28
    14c0:	0500      	beq 14ca <__HALF_BANK_SIZE_+0x4ca>
    14c2:	4b3b 0000 	sub r2,r2,6
    14c6:	0200      	beq 14ca <__HALF_BANK_SIZE_+0x4ca>
    14c8:	1423      	mov r0,0xa1
    14ca:	ed0b 0003 	*unknown*
    14ce:	0500      	beq 14d8 <__HALF_BANK_SIZE_+0x4d8>
    14d0:	4b3c 0000 	strh r2,[r2,+0x6]
    14d4:	0200      	beq 14d8 <__HALF_BANK_SIZE_+0x4d8>
    14d6:	1823      	mov r0,0xc1
    14d8:	ac0b 0002 	mov r5,0x60
    14dc:	0500      	beq 14e6 <__HALF_BANK_SIZE_+0x4e6>
    14de:	4b3d 0000 	strh r2,[r2],+r6
    14e2:	0200      	beq 14e6 <__HALF_BANK_SIZE_+0x4e6>
    14e4:	1c23      	mov r0,0xe1
    14e6:	2f0b 0004 	*unknown*
    14ea:	0500      	beq 14f4 <__HALF_BANK_SIZE_+0x4f4>
    14ec:	4b3e 0000 	*unknown*
    14f0:	0200      	beq 14f4 <__HALF_BANK_SIZE_+0x4f4>
    14f2:	2023      	mov r1,0x1
    14f4:	1000      	beq 1514 <__HALF_BANK_SIZE_+0x514>
    14f6:	00b4      	strh r0,[r0,0x1]
    14f8:	0000      	beq 14f8 <__HALF_BANK_SIZE_+0x4f8>
    14fa:	0108 4705 	beq 8e1efc <__PROG_SIZE_FOR_CORE_+0x7e1efc>
    14fe:	0250      	bltu 1502 <__HALF_BANK_SIZE_+0x502>
    1500:	0000      	beq 1500 <__HALF_BANK_SIZE_+0x500>
    1502:	200b 0001 	*unknown*
    1506:	0500      	beq 1510 <__HALF_BANK_SIZE_+0x510>
    1508:	5048 0002 	blteu 19a8 <__HALF_BANK_SIZE_+0x9a8>
    150c:	0200      	beq 1510 <__HALF_BANK_SIZE_+0x510>
    150e:	0023      	mov r0,0x1
    1510:	000b 0000 	*unknown*
    1514:	0500      	beq 151e <__HALF_BANK_SIZE_+0x51e>
    1516:	5049 0002 	*unknown*
    151a:	0300      	beq 1520 <__HALF_BANK_SIZE_+0x520>
    151c:	8023      	mov r4,0x1
    151e:	0b01      	ldrb r0,[r2,r6]
    1520:	038e      	asr r0,r0,0x1c
    1522:	0000      	beq 1522 <__HALF_BANK_SIZE_+0x522>
    1524:	4b05      	ldrb r2,[r2],r6
    1526:	00fc 0000 	strd r0,[r0,+0x1]
    152a:	2303      	mov r1,0x18
    152c:	0280      	blt 1530 <__HALF_BANK_SIZE_+0x530>
    152e:	d90b 0000 	*unknown*
    1532:	0500      	beq 153c <__HALF_BANK_SIZE_+0x53c>
    1534:	fc4e      	asr r7,r7,0x2
    1536:	0000      	beq 1536 <__HALF_BANK_SIZE_+0x536>
    1538:	0300      	beq 153e <__HALF_BANK_SIZE_+0x53e>
    153a:	8423      	mov r4,0x21
    153c:	0002      	moveq r0,r0
    153e:	fa08 0000 	beq 1732 <__HALF_BANK_SIZE_+0x732>
    1542:	6000      	beq 1602 <__HALF_BANK_SIZE_+0x602>
    1544:	0002      	moveq r0,r0
    1546:	0900      	beq 1558 <__HALF_BANK_SIZE_+0x558>
    1548:	00b8 0000 	bbne 1548 <__HALF_BANK_SIZE_+0x548>
    154c:	001f 4810 	*unknown*
    1550:	0002      	moveq r0,r0
    1552:	9000      	beq 1472 <__HALF_BANK_SIZE_+0x472>
    1554:	0501      	ldrb r0,[r1,r2]
    1556:	a759 0002 	*unknown*
    155a:	0b00      	beq 1570 <__HALF_BANK_SIZE_+0x570>
    155c:	02eb 0000 	*unknown*
    1560:	5a05      	ldrb r2,[r6],r4
    1562:	02a7      	fmul r0,r0,r5
    1564:	0000      	beq 1564 <__HALF_BANK_SIZE_+0x564>
    1566:	2302 0b00 	*unknown*
    156a:	0303      	mov r0,0x18
    156c:	0000      	beq 156c <__HALF_BANK_SIZE_+0x56c>
    156e:	5b05      	ldrb r2,[r6],r6
    1570:	004b 0000 	*unknown*
    1574:	2302 0b04 	*unknown*
    1578:	0128 0000 	bgtu 157a <__HALF_BANK_SIZE_+0x57a>
    157c:	5d05      	ldrb r2,[r7],r2
    157e:	02ad 0000 	ldrh r0,[r0],+r5
    1582:	2302 0b08 	*unknown*
    1586:	00b4      	strh r0,[r0,0x1]
    1588:	0000      	beq 1588 <__HALF_BANK_SIZE_+0x588>
    158a:	5e05      	ldrb r2,[r7],r4
    158c:	0207      	fadd r0,r0,r4
    158e:	0000      	beq 158e <__HALF_BANK_SIZE_+0x58e>
    1590:	2303      	mov r1,0x18
    1592:	0188 0f00 	blt 1e1594 <__PROG_SIZE_FOR_CORE_+0xe1594>
    1596:	6004      	ldrb r3,[r0]
    1598:	0002      	moveq r0,r0
    159a:	0800      	beq 15aa <__HALF_BANK_SIZE_+0x5aa>
    159c:	02bf 0000 	*unknown*
    15a0:	02bd 0000 	strh r0,[r0],+r5
    15a4:	b809 0000 	ldrb r5,[r6,+r0]
    15a8:	1f00      	beq 15e6 <__HALF_BANK_SIZE_+0x5e6>
    15aa:	1100      	beq 15cc <__HALF_BANK_SIZE_+0x5cc>
    15ac:	0f01      	ldrb r0,[r3,r6]
    15ae:	bd04      	ldrb r5,[r7,0x2]
    15b0:	0002      	moveq r0,r0
    15b2:	0d00      	beq 15cc <__HALF_BANK_SIZE_+0x5cc>
    15b4:	02b6      	lsl r0,r0,0x15
    15b6:	0000      	beq 15b6 <__HALF_BANK_SIZE_+0x5b6>
    15b8:	0508 ee69 	beq ffdce7c2 <__exit+0x71dce202>
    15bc:	0002      	moveq r0,r0
    15be:	0b00      	beq 15d4 <__HALF_BANK_SIZE_+0x5d4>
    15c0:	009f 0000 	*unknown*
    15c4:	6a05      	ldrb r3,[r2],r4
    15c6:	02ee      	asr r0,r0,0x17
    15c8:	0000      	beq 15c8 <__HALF_BANK_SIZE_+0x5c8>
    15ca:	2302 0b00 	*unknown*
    15ce:	000c 0000 	ldrb r0,[r0,+0x0]
    15d2:	6b05      	ldrb r3,[r2],r6
    15d4:	004b 0000 	*unknown*
    15d8:	2302 0004 	*unknown*
    15dc:	040f 0036 	*unknown*
    15e0:	0000      	beq 15e0 <__HALF_BANK_SIZE_+0x5e0>
    15e2:	d50d 0002 	*unknown*
    15e6:	7000      	beq 16c6 <__HALF_BANK_SIZE_+0x6c6>
    15e8:	a905      	ldrb r5,[r2],r2
    15ea:	044e      	asr r0,r1,0x2
    15ec:	0000      	beq 15ec <__HALF_BANK_SIZE_+0x5ec>
    15ee:	5f0e      	asr r2,r7,0x18
    15f0:	0070      	bgte 15f0 <__HALF_BANK_SIZE_+0x5f0>
    15f2:	aa05      	ldrb r5,[r2],r4
    15f4:	02ee      	asr r0,r0,0x17
    15f6:	0000      	beq 15f6 <__HALF_BANK_SIZE_+0x5f6>
    15f8:	2302 0e00 	*unknown*
    15fc:	725f 0500 	*unknown*
    1600:	4bab 0000 	*unknown*
    1604:	0200      	beq 1608 <__HALF_BANK_SIZE_+0x608>
    1606:	0423      	mov r0,0x21
    1608:	5f0e      	asr r2,r7,0x18
    160a:	0077      	fabs rd,rn
    160c:	ac05      	ldrb r5,[r3],r0
    160e:	004b 0000 	*unknown*
    1612:	2302 0b08 	*unknown*
    1616:	00d2      	movblte r0,r0
    1618:	0000      	beq 1618 <__HALF_BANK_SIZE_+0x618>
    161a:	ad05      	ldrb r5,[r3],r2
    161c:	003d 0000 	strh r0,[r0],+r0
    1620:	2302 0b0c 	*unknown*
    1624:	01b9 0000 	strh r0,[r0,+r3]
    1628:	ae05      	ldrb r5,[r3],r4
    162a:	003d 0000 	strh r0,[r0],+r0
    162e:	2302 0e0e 	*unknown*
    1632:	625f 0066 	*unknown*
    1636:	af05      	ldrb r5,[r3],r6
    1638:	02c5      	ldr r0,[r0],r5
    163a:	0000      	beq 163a <__HALF_BANK_SIZE_+0x63a>
    163c:	2302 0b10 	*unknown*
    1640:	005c 0000 	str r0,[r0]
    1644:	b005      	ldrb r5,[r4],r0
    1646:	004b 0000 	*unknown*
    164a:	2302 0b18 	*unknown*
    164e:	00c2      	movblt r0,r0
    1650:	0000      	beq 1650 <__HALF_BANK_SIZE_+0x650>
    1652:	b705      	ldrb r5,[r5],r6
    1654:	00fa      	orr r0,r0,r1
    1656:	0000      	beq 1656 <__HALF_BANK_SIZE_+0x656>
    1658:	2302 0b1c 	*unknown*
    165c:	014c 0000 	ldr r0,[r0,+0x2]
    1660:	b905      	ldrb r5,[r6],r2
    1662:	05de 0000 	*unknown*
    1666:	2302 0b20 	*unknown*
    166a:	021e 0000 	*unknown*
    166e:	bb05      	ldrb r5,[r6],r6
    1670:	060e      	asr r0,r1,0x10
    1672:	0000      	beq 1672 <__HALF_BANK_SIZE_+0x672>
    1674:	2302 0b24 	*unknown*
    1678:	0364      	ldrd r0,[r0,0x6]
    167a:	0000      	beq 167a <__HALF_BANK_SIZE_+0x67a>
    167c:	bd05      	ldrb r5,[r7],r2
    167e:	0633      	sub r0,r1,-4
    1680:	0000      	beq 1680 <__HALF_BANK_SIZE_+0x680>
    1682:	2302 0b28 	*unknown*
    1686:	0449 0000 	ldr r0,[r1,+r0]
    168a:	be05      	ldrb r5,[r7],r4
    168c:	064e      	asr r0,r1,0x12
    168e:	0000      	beq 168e <__HALF_BANK_SIZE_+0x68e>
    1690:	2302 0e2c 	*unknown*
    1694:	755f 0062 	*unknown*
    1698:	c105      	ldrb r6,[r0],r2
    169a:	02c5      	ldr r0,[r0],r5
    169c:	0000      	beq 169c <__HALF_BANK_SIZE_+0x69c>
    169e:	2302 0e30 	*unknown*
    16a2:	755f 0070 	*unknown*
    16a6:	c205      	ldrb r6,[r0],r4
    16a8:	02ee      	asr r0,r0,0x17
    16aa:	0000      	beq 16aa <__HALF_BANK_SIZE_+0x6aa>
    16ac:	2302 0e38 	*unknown*
    16b0:	755f 0072 	*unknown*
    16b4:	c305      	ldrb r6,[r0],r6
    16b6:	004b 0000 	*unknown*
    16ba:	2302 0b3c 	*unknown*
    16be:	0099 0000 	strb r0,[r0,+r1]
    16c2:	c605      	ldrb r6,[r1],r4
    16c4:	0654      	str r0,[r1,0x4]
    16c6:	0000      	beq 16c6 <__HALF_BANK_SIZE_+0x6c6>
    16c8:	2302 0b40 	*unknown*
    16cc:	0421      	ldrh r0,[r1,r0]
    16ce:	0000      	beq 16ce <__HALF_BANK_SIZE_+0x6ce>
    16d0:	c705      	ldrb r6,[r1],r6
    16d2:	0664      	ldrd r0,[r1,0x4]
    16d4:	0000      	beq 16d4 <__HALF_BANK_SIZE_+0x6d4>
    16d6:	2302 0e43 	*unknown*
    16da:	6c5f 0062 	*unknown*
    16de:	ca05      	ldrb r6,[r2],r4
    16e0:	02c5      	ldr r0,[r0],r5
    16e2:	0000      	beq 16e2 <__HALF_BANK_SIZE_+0x6e2>
    16e4:	2302 0b48 	*unknown*
    16e8:	00e8 0000 	b 16e8 <__HALF_BANK_SIZE_+0x6e8>
    16ec:	cd05      	ldrb r6,[r3],r2
    16ee:	004b 0000 	*unknown*
    16f2:	2302 0b50 	*unknown*
    16f6:	00f9 0000 	strd r0,[r0,+r1]
    16fa:	ce05      	ldrb r6,[r3],r4
    16fc:	004b 0000 	*unknown*
    1700:	2302 0b54 	*unknown*
    1704:	0478 0000 	bgte 170c <__HALF_BANK_SIZE_+0x70c>
    1708:	d105      	ldrb r6,[r4],r2
    170a:	046d 0000 	ldrd r0,[r1],+r0
    170e:	2302 0b58 	*unknown*
    1712:	0210      	bne 1716 <__HALF_BANK_SIZE_+0x716>
    1714:	0000      	beq 1714 <__HALF_BANK_SIZE_+0x714>
    1716:	d505      	ldrb r6,[r5],r2
    1718:	00ef 0000 	*unknown*
    171c:	2302 0b5c 	*unknown*
    1720:	02dd 0000 	str r0,[r0],+r5
    1724:	d705      	ldrb r6,[r5],r6
    1726:	00e4      	ldrd r0,[r0,0x1]
    1728:	0000      	beq 1728 <__HALF_BANK_SIZE_+0x728>
    172a:	2302 0b60 	*unknown*
    172e:	0216      	lsl r0,r0,0x10
    1730:	0000      	beq 1730 <__HALF_BANK_SIZE_+0x730>
    1732:	d805      	ldrb r6,[r6],r0
    1734:	004b 0000 	*unknown*
    1738:	2302 0068 	*unknown*
    173c:	0112      	movfs r0,config
    173e:	004b 0000 	*unknown*
    1742:	046d 0000 	ldrd r0,[r1],+r0
    1746:	6d13      	add r3,r3,2
    1748:	0004      	ldrb r0,[r0]
    174a:	1300      	beq 1770 <__HALF_BANK_SIZE_+0x770>
    174c:	00fa      	orr r0,r0,r1
    174e:	0000      	beq 174e <__HALF_BANK_SIZE_+0x74e>
    1750:	d113      	add r6,r4,2
    1752:	0005      	ldrb r0,[r0],r0
    1754:	1300      	beq 177a <__HALF_BANK_SIZE_+0x77a>
    1756:	004b 0000 	*unknown*
    175a:	0f00      	beq 1778 <__HALF_BANK_SIZE_+0x778>
    175c:	7304      	ldrb r3,[r4,0x6]
    175e:	0004      	ldrb r0,[r0]
    1760:	1400      	beq 1788 <__HALF_BANK_SIZE_+0x788>
    1762:	041a      	add r0,r1,r0
    1764:	0000      	beq 1764 <__HALF_BANK_SIZE_+0x764>
    1766:	0448 4405 	blteu 88216e <__PROG_SIZE_FOR_CORE_+0x78216e>
    176a:	d102      	movts iab,r6
    176c:	0005      	ldrb r0,[r0],r0
    176e:	1500      	beq 1798 <__HALF_BANK_SIZE_+0x798>
    1770:	029b 0000 	add r0,r0,5
    1774:	4605      	ldrb r2,[r1],r4
    1776:	4b02 0000 	*unknown*
    177a:	0200      	beq 177e <__HALF_BANK_SIZE_+0x77e>
    177c:	0023      	mov r0,0x1
    177e:	e115      	strb r7,[r0],r2
    1780:	0000      	beq 1780 <__HALF_BANK_SIZE_+0x780>
    1782:	0500      	beq 178c <__HALF_BANK_SIZE_+0x78c>
    1784:	024b 06c1 	*unknown*
    1788:	0000      	beq 1788 <__HALF_BANK_SIZE_+0x788>
    178a:	2302 1504 	*unknown*
    178e:	01a9 0000 	ldrh r0,[r0,+r3]
    1792:	4b05      	ldrb r2,[r2],r6
    1794:	c102      	movts config,r6
    1796:	0006      	lsr r0,r0,0x0
    1798:	0200      	beq 179c <__HALF_BANK_SIZE_+0x79c>
    179a:	0823      	mov r0,0x41
    179c:	3c15      	strb r1,[r7],r0
    179e:	0001      	ldrb r0,[r0,r0]
    17a0:	0500      	beq 17aa <__HALF_BANK_SIZE_+0x7aa>
    17a2:	024b 06c1 	*unknown*
    17a6:	0000      	beq 17a6 <__HALF_BANK_SIZE_+0x7a6>
    17a8:	2302 150c 	*unknown*
    17ac:	02fe 0000 	*unknown*
    17b0:	4d05      	ldrb r2,[r3],r2
    17b2:	4b02 0000 	*unknown*
    17b6:	0200      	beq 17ba <__HALF_BANK_SIZE_+0x7ba>
    17b8:	1023      	mov r0,0x81
    17ba:	1a15      	strb r0,[r6],r4
    17bc:	0000      	beq 17bc <__HALF_BANK_SIZE_+0x7bc>
    17be:	0500      	beq 17c8 <__HALF_BANK_SIZE_+0x7c8>
    17c0:	024e      	asr r0,r0,0x12
    17c2:	08dd 0000 	str r0,[r2],+r1
    17c6:	2302 1514 	*unknown*
    17ca:	03c4      	ldr r0,[r0,0x7]
    17cc:	0000      	beq 17cc <__HALF_BANK_SIZE_+0x7cc>
    17ce:	5005      	ldrb r2,[r4],r0
    17d0:	4b02 0000 	*unknown*
    17d4:	0200      	beq 17d8 <__HALF_BANK_SIZE_+0x7d8>
    17d6:	3023      	mov r1,0x81
    17d8:	0815      	strb r0,[r2],r0
    17da:	0003      	mov r0,0x0
    17dc:	0500      	beq 17e6 <__HALF_BANK_SIZE_+0x7e6>
    17de:	0251      	str r0,[r0,r4]
    17e0:	0603      	mov r0,0x30
    17e2:	0000      	beq 17e2 <__HALF_BANK_SIZE_+0x7e2>
    17e4:	2302 1534 	*unknown*
    17e8:	0250      	bltu 17ec <__HALF_BANK_SIZE_+0x7ec>
    17ea:	0000      	beq 17ea <__HALF_BANK_SIZE_+0x7ea>
    17ec:	5305      	ldrb r2,[r4],r6
    17ee:	4b02 0000 	*unknown*
    17f2:	0200      	beq 17f6 <__HALF_BANK_SIZE_+0x7f6>
    17f4:	3823      	mov r1,0xc1
    17f6:	1815      	strb r0,[r6],r0
    17f8:	0003      	mov r0,0x0
    17fa:	0500      	beq 1804 <__HALF_BANK_SIZE_+0x804>
    17fc:	0255      	str r0,[r0],r4
    17fe:	08f9 0000 	strd r0,[r2,+r1]
    1802:	2302 153c 	*unknown*
    1806:	01fb 0000 	*unknown*
    180a:	5805      	ldrb r2,[r6],r0
    180c:	6602 0001 	*unknown*
    1810:	0200      	beq 1814 <__HALF_BANK_SIZE_+0x814>
    1812:	4023      	mov r2,0x1
    1814:	5215      	strb r2,[r4],r4
    1816:	0001      	ldrb r0,[r0,r0]
    1818:	0500      	beq 1822 <__HALF_BANK_SIZE_+0x822>
    181a:	0259 004b 	*unknown*
    181e:	0000      	beq 181e <__HALF_BANK_SIZE_+0x81e>
    1820:	2302 1544 	*unknown*
    1824:	0463      	mov r0,0x23
    1826:	0000      	beq 1826 <__HALF_BANK_SIZE_+0x826>
    1828:	5a05      	ldrb r2,[r6],r4
    182a:	6602 0001 	*unknown*
    182e:	0200      	beq 1832 <__HALF_BANK_SIZE_+0x832>
    1830:	4823      	mov r2,0x41
    1832:	6a15      	strb r3,[r2],r4
    1834:	0002      	moveq r0,r0
    1836:	0500      	beq 1840 <__HALF_BANK_SIZE_+0x840>
    1838:	025b 08ff 	*unknown*
    183c:	0000      	beq 183c <__HALF_BANK_SIZE_+0x83c>
    183e:	2302 154c 	*unknown*
    1842:	01b1      	strh r0,[r0,r3]
    1844:	0000      	beq 1844 <__HALF_BANK_SIZE_+0x844>
    1846:	5e05      	ldrb r2,[r7],r4
    1848:	4b02 0000 	*unknown*
    184c:	0200      	beq 1850 <__HALF_BANK_SIZE_+0x850>
    184e:	5023      	mov r2,0x81
    1850:	f115      	strb r7,[r4],r2
    1852:	0000      	beq 1852 <__HALF_BANK_SIZE_+0x852>
    1854:	0500      	beq 185e <__HALF_BANK_SIZE_+0x85e>
    1856:	025f 05d1 	*unknown*
    185a:	0000      	beq 185a <__HALF_BANK_SIZE_+0x85a>
    185c:	2302 1554 	*unknown*
    1860:	0294      	strb r0,[r0,0x5]
    1862:	0000      	beq 1862 <__HALF_BANK_SIZE_+0x862>
    1864:	8205      	ldrb r4,[r0],r4
    1866:	bb02 0008 	*unknown*
    186a:	0200      	beq 186e <__HALF_BANK_SIZE_+0x86e>
    186c:	5823      	mov r2,0xc1
    186e:	4815      	strb r2,[r2],r0
    1870:	0002      	moveq r0,r0
    1872:	0500      	beq 187c <__HALF_BANK_SIZE_+0x87c>
    1874:	0285      	ldrb r0,[r0],r5
    1876:	02a7      	fmul r0,r0,r5
    1878:	0000      	beq 1878 <__HALF_BANK_SIZE_+0x878>
    187a:	2303      	mov r1,0x18
    187c:	02c8 d915 	bblt ffb24280 <__exit+0x71b23cc0>
    1880:	0001      	ldrb r0,[r0,r0]
    1882:	0500      	beq 188c <__HALF_BANK_SIZE_+0x88c>
    1884:	0286      	lsr r0,r0,0x14
    1886:	0260      	bgt 188a <__HALF_BANK_SIZE_+0x88a>
    1888:	0000      	beq 1888 <__HALF_BANK_SIZE_+0x888>
    188a:	2303      	mov r1,0x18
    188c:	02d0      	bblte 1890 <__HALF_BANK_SIZE_+0x890>
    188e:	1015      	strb r0,[r4],r0
    1890:	0004      	ldrb r0,[r0]
    1892:	0500      	beq 189c <__HALF_BANK_SIZE_+0x89c>
    1894:	0289 0911 	*unknown*
    1898:	0000      	beq 1898 <__HALF_BANK_SIZE_+0x898>
    189a:	2303      	mov r1,0x18
    189c:	05e0      	b 18a6 <__HALF_BANK_SIZE_+0x8a6>
    189e:	ca15      	strb r6,[r2],r4
    18a0:	0000      	beq 18a0 <__HALF_BANK_SIZE_+0x8a0>
    18a2:	0500      	beq 18ac <__HALF_BANK_SIZE_+0x8ac>
    18a4:	028e      	asr r0,r0,0x14
    18a6:	0680      	blt 18b2 <__HALF_BANK_SIZE_+0x8b2>
    18a8:	0000      	beq 18a8 <__HALF_BANK_SIZE_+0x8a8>
    18aa:	2303      	mov r1,0x18
    18ac:	05e8 af15 	b ff5e42b6 <__exit+0x715e3cf6>
    18b0:	0000      	beq 18b0 <__HALF_BANK_SIZE_+0x8b0>
    18b2:	0500      	beq 18bc <__HALF_BANK_SIZE_+0x8bc>
    18b4:	028f 091d 	*unknown*
    18b8:	0000      	beq 18b8 <__HALF_BANK_SIZE_+0x8b8>
    18ba:	2303      	mov r1,0x18
    18bc:	05f8 0f00 	bl 1e18c6 <__PROG_SIZE_FOR_CORE_+0xe18c6>
    18c0:	d704      	ldrb r6,[r5,0x6]
    18c2:	0005      	ldrb r0,[r0],r0
    18c4:	0200      	beq 18c8 <__HALF_BANK_SIZE_+0x8c8>
    18c6:	0801      	ldrb r0,[r2,r0]
    18c8:	028f 0000 	*unknown*
    18cc:	040f 044e 	*unknown*
    18d0:	0000      	beq 18d0 <__HALF_BANK_SIZE_+0x8d0>
    18d2:	0112      	movfs r0,config
    18d4:	004b 0000 	*unknown*
    18d8:	0603      	mov r0,0x30
    18da:	0000      	beq 18da <__HALF_BANK_SIZE_+0x8da>
    18dc:	6d13      	add r3,r3,2
    18de:	0004      	ldrb r0,[r0]
    18e0:	1300      	beq 1906 <__HALF_BANK_SIZE_+0x906>
    18e2:	00fa      	orr r0,r0,r1
    18e4:	0000      	beq 18e4 <__HALF_BANK_SIZE_+0x8e4>
    18e6:	0313      	add r0,r0,-2
    18e8:	0006      	lsr r0,r0,0x0
    18ea:	1300      	beq 1910 <__HALF_BANK_SIZE_+0x910>
    18ec:	004b 0000 	*unknown*
    18f0:	0f00      	beq 190e <__HALF_BANK_SIZE_+0x90e>
    18f2:	0904      	ldrb r0,[r2,0x2]
    18f4:	0006      	lsr r0,r0,0x0
    18f6:	1600      	beq 1922 <__HALF_BANK_SIZE_+0x922>
    18f8:	05d7      	float r0,r1
    18fa:	0000      	beq 18fa <__HALF_BANK_SIZE_+0x8fa>
    18fc:	040f 05e4 	*unknown*
    1900:	0000      	beq 1900 <__HALF_BANK_SIZE_+0x900>
    1902:	0112      	movfs r0,config
    1904:	0072      	movgte r0,r0
    1906:	0000      	beq 1906 <__HALF_BANK_SIZE_+0x906>
    1908:	0633      	sub r0,r1,-4
    190a:	0000      	beq 190a <__HALF_BANK_SIZE_+0x90a>
    190c:	6d13      	add r3,r3,2
    190e:	0004      	ldrb r0,[r0]
    1910:	1300      	beq 1936 <__HALF_BANK_SIZE_+0x936>
    1912:	00fa      	orr r0,r0,r1
    1914:	0000      	beq 1914 <__HALF_BANK_SIZE_+0x914>
    1916:	7213      	add r3,r4,-4
    1918:	0000      	beq 1918 <__HALF_BANK_SIZE_+0x918>
    191a:	1300      	beq 1940 <__HALF_BANK_SIZE_+0x940>
    191c:	004b 0000 	*unknown*
    1920:	0f00      	beq 193e <__HALF_BANK_SIZE_+0x93e>
    1922:	1404      	ldrb r0,[r5]
    1924:	0006      	lsr r0,r0,0x0
    1926:	1200      	beq 194a <__HALF_BANK_SIZE_+0x94a>
    1928:	4b01      	ldrb r2,[r2,r6]
    192a:	0000      	beq 192a <__HALF_BANK_SIZE_+0x92a>
    192c:	4e00      	beq 19c8 <__HALF_BANK_SIZE_+0x9c8>
    192e:	0006      	lsr r0,r0,0x0
    1930:	1300      	beq 1956 <__HALF_BANK_SIZE_+0x956>
    1932:	046d 0000 	ldrd r0,[r1],+r0
    1936:	fa13      	add r7,r6,-4
    1938:	0000      	beq 1938 <__HALF_BANK_SIZE_+0x938>
    193a:	0000      	beq 193a <__HALF_BANK_SIZE_+0x93a>
    193c:	040f 0639 	*unknown*
    1940:	0000      	beq 1940 <__HALF_BANK_SIZE_+0x940>
    1942:	3608 0000 	beq 19ae <__HALF_BANK_SIZE_+0x9ae>
    1946:	6400      	beq 1a0e <__HALF_BANK_SIZE_+0xa0e>
    1948:	0006      	lsr r0,r0,0x0
    194a:	0900      	beq 195c <__HALF_BANK_SIZE_+0x95c>
    194c:	00b8 0000 	bbne 194c <__HALF_BANK_SIZE_+0x94c>
    1950:	0002      	moveq r0,r0
    1952:	3608 0000 	beq 19be <__HALF_BANK_SIZE_+0x9be>
    1956:	7400      	beq 1a3e <__HALF_BANK_SIZE_+0xa3e>
    1958:	0006      	lsr r0,r0,0x0
    195a:	0900      	beq 196c <__HALF_BANK_SIZE_+0x96c>
    195c:	00b8 0000 	bbne 195c <__HALF_BANK_SIZE_+0x95c>
    1960:	0000      	beq 1960 <__HALF_BANK_SIZE_+0x960>
    1962:	c305      	ldrb r6,[r0],r6
    1964:	0002      	moveq r0,r0
    1966:	0500      	beq 1970 <__HALF_BANK_SIZE_+0x970>
    1968:	0111      	strb r0,[r0,r2]
    196a:	02f4      	strd r0,[r0,0x5]
    196c:	0000      	beq 196c <__HALF_BANK_SIZE_+0x96c>
    196e:	f717      	fsub r7,r5,r6
    1970:	0003      	mov r0,0x0
    1972:	1000      	beq 1992 <__HALF_BANK_SIZE_+0x992>
    1974:	1505      	ldrb r0,[r5],r2
    1976:	bb01      	ldrb r5,[r6,r6]
    1978:	0006      	lsr r0,r0,0x0
    197a:	1500      	beq 19a4 <__HALF_BANK_SIZE_+0x9a4>
    197c:	02eb 0000 	*unknown*
    1980:	1705      	ldrb r0,[r5],r6
    1982:	bb01      	ldrb r5,[r6,r6]
    1984:	0006      	lsr r0,r0,0x0
    1986:	0200      	beq 198a <__HALF_BANK_SIZE_+0x98a>
    1988:	0023      	mov r0,0x1
    198a:	bf15      	strb r5,[r7],r6
    198c:	0001      	ldrb r0,[r0,r0]
    198e:	0500      	beq 1998 <__HALF_BANK_SIZE_+0x998>
    1990:	0118 004b 	bne af92 <__stack_start_+0x2fa2>
    1994:	0000      	beq 1994 <__HALF_BANK_SIZE_+0x994>
    1996:	2302 1504 	*unknown*
    199a:	02bd 0000 	strh r0,[r0],+r5
    199e:	1905      	ldrb r0,[r6],r2
    19a0:	c101      	ldrb r6,[r0,r2]
    19a2:	0006      	lsr r0,r0,0x0
    19a4:	0200      	beq 19a8 <__HALF_BANK_SIZE_+0x9a8>
    19a6:	0823      	mov r0,0x41
    19a8:	0f00      	beq 19c6 <__HALF_BANK_SIZE_+0x9c6>
    19aa:	8004      	ldrb r4,[r0]
    19ac:	0006      	lsr r0,r0,0x0
    19ae:	0f00      	beq 19cc <__HALF_BANK_SIZE_+0x9cc>
    19b0:	7404      	ldrb r3,[r5]
    19b2:	0006      	lsr r0,r0,0x0
    19b4:	1700      	beq 19e2 <__HALF_BANK_SIZE_+0x9e2>
    19b6:	0012      	movne r0,r0
    19b8:	0000      	beq 19b8 <__HALF_BANK_SIZE_+0x9b8>
    19ba:	0510      	bne 19c4 <__HALF_BANK_SIZE_+0x9c4>
    19bc:	0131      	strh r0,[r0,r2]
    19be:	0702 0000 	*unknown*
    19c2:	4e15      	strb r2,[r3],r4
    19c4:	0003      	mov r0,0x0
    19c6:	0500      	beq 19d0 <__HALF_BANK_SIZE_+0x9d0>
    19c8:	0132 0702 	*unknown*
    19cc:	0000      	beq 19cc <__HALF_BANK_SIZE_+0x9cc>
    19ce:	2302 1500 	*unknown*
    19d2:	037b 0000 	*unknown*
    19d6:	3305      	ldrb r1,[r4],r6
    19d8:	0201      	ldrb r0,[r0,r4]
    19da:	0007      	fadd r0,r0,r0
    19dc:	0200      	beq 19e0 <__HALF_BANK_SIZE_+0x9e0>
    19de:	0623      	mov r0,0x31
    19e0:	9715      	strb r4,[r5],r6
    19e2:	0003      	mov r0,0x0
    19e4:	0500      	beq 19ee <__HALF_BANK_SIZE_+0x9ee>
    19e6:	0134      	strh r0,[r0,0x2]
    19e8:	0044      	ldr r0,[r0]
    19ea:	0000      	beq 19ea <__HALF_BANK_SIZE_+0x9ea>
    19ec:	2302 000c 	*unknown*
    19f0:	4408 0000 	beq 1a78 <__HALF_BANK_SIZE_+0xa78>
    19f4:	1200      	beq 1a18 <__HALF_BANK_SIZE_+0xa18>
    19f6:	0007      	fadd r0,r0,r0
    19f8:	0900      	beq 1a0a <__HALF_BANK_SIZE_+0xa0a>
    19fa:	00b8 0000 	bbne 19fa <__HALF_BANK_SIZE_+0x9fa>
    19fe:	0002      	moveq r0,r0
    1a00:	e018 6305 	bne c625c0 <__PROG_SIZE_FOR_CORE_+0xb625c0>
    1a04:	4302 0008 	*unknown*
    1a08:	1500      	beq 1a32 <__HALF_BANK_SIZE_+0xa32>
    1a0a:	03db 0000 	*unknown*
    1a0e:	6505      	ldrb r3,[r1],r2
    1a10:	2802      	moveq r1,r2
    1a12:	0000      	beq 1a12 <__HALF_BANK_SIZE_+0xa12>
    1a14:	0200      	beq 1a18 <__HALF_BANK_SIZE_+0xa18>
    1a16:	0023      	mov r0,0x1
    1a18:	8115      	strb r4,[r0],r2
    1a1a:	0003      	mov r0,0x0
    1a1c:	0500      	beq 1a26 <__HALF_BANK_SIZE_+0xa26>
    1a1e:	0266      	lsr r0,r0,0x13
    1a20:	05d1      	str r0,[r1,r3]
    1a22:	0000      	beq 1a22 <__HALF_BANK_SIZE_+0xa22>
    1a24:	2302 1504 	*unknown*
    1a28:	01ee      	asr r0,r0,0xf
    1a2a:	0000      	beq 1a2a <__HALF_BANK_SIZE_+0xa2a>
    1a2c:	6705      	ldrb r3,[r1],r6
    1a2e:	4302 0008 	*unknown*
    1a32:	0200      	beq 1a36 <__HALF_BANK_SIZE_+0xa36>
    1a34:	0823      	mov r0,0x41
    1a36:	3a15      	strb r1,[r6],r4
    1a38:	0004      	ldrb r0,[r0]
    1a3a:	0500      	beq 1a44 <__HALF_BANK_SIZE_+0xa44>
    1a3c:	0268 017c 	bgt 31240 <__stack_start_+0x29250>
    1a40:	0000      	beq 1a40 <__HALF_BANK_SIZE_+0xa40>
    1a42:	2302 1528 	*unknown*
    1a46:	025b 0000 	*unknown*
    1a4a:	6905      	ldrb r3,[r2],r2
    1a4c:	4b02 0000 	*unknown*
    1a50:	0200      	beq 1a54 <__HALF_BANK_SIZE_+0xa54>
    1a52:	5023      	mov r2,0x81
    1a54:	e615      	strb r7,[r1],r4
    1a56:	0002      	moveq r0,r0
    1a58:	0500      	beq 1a62 <__HALF_BANK_SIZE_+0xa62>
    1a5a:	026a      	asr r0,r0,r4
    1a5c:	0059 0000 	str r0,[r0,+r0]
    1a60:	2302 1558 	*unknown*
    1a64:	0450      	bltu 1a6c <__HALF_BANK_SIZE_+0xa6c>
    1a66:	0000      	beq 1a66 <__HALF_BANK_SIZE_+0xa66>
    1a68:	6b05      	ldrb r3,[r2],r6
    1a6a:	c702 0006 	*unknown*
    1a6e:	0200      	beq 1a72 <__HALF_BANK_SIZE_+0xa72>
    1a70:	6023      	mov r3,0x1
    1a72:	f115      	strb r7,[r4],r2
    1a74:	0002      	moveq r0,r0
    1a76:	0500      	beq 1a80 <__HALF_BANK_SIZE_+0xa80>
    1a78:	026c 00e4 	ldrd r0,[r0,+0x724]
    1a7c:	0000      	beq 1a7c <__HALF_BANK_SIZE_+0xa7c>
    1a7e:	2302 1570 	*unknown*
    1a82:	0455      	str r0,[r1],r0
    1a84:	0000      	beq 1a84 <__HALF_BANK_SIZE_+0xa84>
    1a86:	6d05      	ldrb r3,[r3],r2
    1a88:	e402      	moveq r7,r1
    1a8a:	0000      	beq 1a8a <__HALF_BANK_SIZE_+0xa8a>
    1a8c:	0200      	beq 1a90 <__HALF_BANK_SIZE_+0xa90>
    1a8e:	7823      	mov r3,0xc1
    1a90:	7415      	strb r3,[r5],r0
    1a92:	0000      	beq 1a92 <__HALF_BANK_SIZE_+0xa92>
    1a94:	0500      	beq 1a9e <__HALF_BANK_SIZE_+0xa9e>
    1a96:	026e      	asr r0,r0,0x13
    1a98:	00e4      	ldrd r0,[r0,0x1]
    1a9a:	0000      	beq 1a9a <__HALF_BANK_SIZE_+0xa9a>
    1a9c:	2303      	mov r1,0x18
    1a9e:	0180      	blt 1aa0 <__HALF_BANK_SIZE_+0xaa0>
    1aa0:	0615      	strb r0,[r1],r4
    1aa2:	0004      	ldrb r0,[r0]
    1aa4:	0500      	beq 1aae <__HALF_BANK_SIZE_+0xaae>
    1aa6:	026f 0853 	*unknown*
    1aaa:	0000      	beq 1aaa <__HALF_BANK_SIZE_+0xaaa>
    1aac:	2303      	mov r1,0x18
    1aae:	0188 e215 	blt ffc444b0 <__exit+0x71c43ef0>
    1ab2:	0001      	ldrb r0,[r0,r0]
    1ab4:	0500      	beq 1abe <__HALF_BANK_SIZE_+0xabe>
    1ab6:	0270      	bgte 1aba <__HALF_BANK_SIZE_+0xaba>
    1ab8:	0863      	mov r0,0x43
    1aba:	0000      	beq 1aba <__HALF_BANK_SIZE_+0xaba>
    1abc:	2303      	mov r1,0x18
    1abe:	0190      	blte 1ac0 <__HALF_BANK_SIZE_+0xac0>
    1ac0:	a415      	strb r5,[r1],r0
    1ac2:	0003      	mov r0,0x0
    1ac4:	0500      	beq 1ace <__HALF_BANK_SIZE_+0xace>
    1ac6:	0271      	strd r0,[r0,r4]
    1ac8:	004b 0000 	*unknown*
    1acc:	2303      	mov r1,0x18
    1ace:	01a8 1215 	bbeq 2444d0 <__PROG_SIZE_FOR_CORE_+0x1444d0>
    1ad2:	0001      	ldrb r0,[r0,r0]
    1ad4:	0500      	beq 1ade <__HALF_BANK_SIZE_+0xade>
    1ad6:	0272 00e4 	*unknown*
    1ada:	0000      	beq 1ada <__HALF_BANK_SIZE_+0xada>
    1adc:	2303      	mov r1,0x18
    1ade:	01b0      	bbne 1ae0 <__HALF_BANK_SIZE_+0xae0>
    1ae0:	6515      	strb r3,[r1],r2
    1ae2:	0000      	beq 1ae2 <__HALF_BANK_SIZE_+0xae2>
    1ae4:	0500      	beq 1aee <__HALF_BANK_SIZE_+0xaee>
    1ae6:	0273 00e4 	*unknown*
    1aea:	0000      	beq 1aea <__HALF_BANK_SIZE_+0xaea>
    1aec:	2303      	mov r1,0x18
    1aee:	01b8 0115 	bbne 244f0 <__stack_start_+0x1c500>
    1af2:	0001      	ldrb r0,[r0,r0]
    1af4:	0500      	beq 1afe <__HALF_BANK_SIZE_+0xafe>
    1af6:	0274      	strd r0,[r0,0x4]
    1af8:	00e4      	ldrd r0,[r0,0x1]
    1afa:	0000      	beq 1afa <__HALF_BANK_SIZE_+0xafa>
    1afc:	2303      	mov r1,0x18
    1afe:	01c0      	bblt 1b00 <__HALF_BANK_SIZE_+0xb00>
    1b00:	2515      	strb r1,[r1],r2
    1b02:	0000      	beq 1b02 <__HALF_BANK_SIZE_+0xb02>
    1b04:	0500      	beq 1b0e <__HALF_BANK_SIZE_+0xb0e>
    1b06:	0275      	strd r0,[r0],r4
    1b08:	00e4      	ldrd r0,[r0,0x1]
    1b0a:	0000      	beq 1b0a <__HALF_BANK_SIZE_+0xb0a>
    1b0c:	2303      	mov r1,0x18
    1b0e:	01c8 3415 	bblt 684510 <__PROG_SIZE_FOR_CORE_+0x584510>
    1b12:	0000      	beq 1b12 <__HALF_BANK_SIZE_+0xb12>
    1b14:	0500      	beq 1b1e <__HALF_BANK_SIZE_+0xb1e>
    1b16:	0276      	lsl r0,r0,0x13
    1b18:	00e4      	ldrd r0,[r0,0x1]
    1b1a:	0000      	beq 1b1a <__HALF_BANK_SIZE_+0xb1a>
    1b1c:	2303      	mov r1,0x18
    1b1e:	01d0      	bblte 1b20 <__HALF_BANK_SIZE_+0xb20>
    1b20:	9915      	strb r4,[r6],r2
    1b22:	0002      	moveq r0,r0
    1b24:	0500      	beq 1b2e <__HALF_BANK_SIZE_+0xb2e>
    1b26:	0277      	fabs rd,rn
    1b28:	004b 0000 	*unknown*
    1b2c:	2303      	mov r1,0x18
    1b2e:	01d8 0800 	bblte 101b30 <__PROG_SIZE_FOR_CORE_+0x1b30>
    1b32:	05d7      	float r0,r1
    1b34:	0000      	beq 1b34 <__HALF_BANK_SIZE_+0xb34>
    1b36:	0853 0000 	*unknown*
    1b3a:	b809 0000 	ldrb r5,[r6,+r0]
    1b3e:	1900      	beq 1b70 <__HALF_BANK_SIZE_+0xb70>
    1b40:	0800      	beq 1b50 <__HALF_BANK_SIZE_+0xb50>
    1b42:	05d7      	float r0,r1
    1b44:	0000      	beq 1b44 <__HALF_BANK_SIZE_+0xb44>
    1b46:	0863      	mov r0,0x43
    1b48:	0000      	beq 1b48 <__HALF_BANK_SIZE_+0xb48>
    1b4a:	b809 0000 	ldrb r5,[r6,+r0]
    1b4e:	0700      	beq 1b5c <__HALF_BANK_SIZE_+0xb5c>
    1b50:	0800      	beq 1b60 <__HALF_BANK_SIZE_+0xb60>
    1b52:	05d7      	float r0,r1
    1b54:	0000      	beq 1b54 <__HALF_BANK_SIZE_+0xb54>
    1b56:	0873 0000 	*unknown*
    1b5a:	b809 0000 	ldrb r5,[r6,+r0]
    1b5e:	1700      	beq 1b8c <__HALF_BANK_SIZE_+0xb8c>
    1b60:	1800      	beq 1b90 <__HALF_BANK_SIZE_+0xb90>
    1b62:	05f0      	bl 1b6c <__HALF_BANK_SIZE_+0xb6c>
    1b64:	027c 089b 	strd r0,[r16,+0x4dc]
    1b68:	0000      	beq 1b68 <__HALF_BANK_SIZE_+0xb68>
    1b6a:	3815      	strb r1,[r6],r0
    1b6c:	0002      	moveq r0,r0
    1b6e:	0500      	beq 1b78 <__HALF_BANK_SIZE_+0xb78>
    1b70:	027f 089b 	*unknown*
    1b74:	0000      	beq 1b74 <__HALF_BANK_SIZE_+0xb74>
    1b76:	2302 1500 	*unknown*
    1b7a:	03fd 0000 	strd r0,[r0],+r7
    1b7e:	8005      	ldrb r4,[r0],r0
    1b80:	ab02 0008 	*unknown*
    1b84:	0200      	beq 1b88 <__HALF_BANK_SIZE_+0xb88>
    1b86:	7823      	mov r3,0xc1
    1b88:	0800      	beq 1b98 <__HALF_BANK_SIZE_+0xb98>
    1b8a:	02ee      	asr r0,r0,0x17
    1b8c:	0000      	beq 1b8c <__HALF_BANK_SIZE_+0xb8c>
    1b8e:	08ab 0000 	*unknown*
    1b92:	b809 0000 	ldrb r5,[r6,+r0]
    1b96:	1d00      	beq 1bd0 <__HALF_BANK_SIZE_+0xbd0>
    1b98:	0800      	beq 1ba8 <__HALF_BANK_SIZE_+0xba8>
    1b9a:	0028 0000 	bgtu 1b9a <__HALF_BANK_SIZE_+0xb9a>
    1b9e:	08bb 0000 	sub r0,r2,1
    1ba2:	b809 0000 	ldrb r5,[r6,+r0]
    1ba6:	1d00      	beq 1be0 <__HALF_BANK_SIZE_+0xbe0>
    1ba8:	1900      	beq 1bda <__HALF_BANK_SIZE_+0xbda>
    1baa:	05f0      	bl 1bb4 <__HALF_BANK_SIZE_+0xbb4>
    1bac:	0261      	ldrd r0,[r0,r4]
    1bae:	08dd 0000 	str r0,[r2],+r1
    1bb2:	1a1a      	add r0,r6,r4
    1bb4:	0004      	ldrb r0,[r0]
    1bb6:	0500      	beq 1bc0 <__HALF_BANK_SIZE_+0xbc0>
    1bb8:	0278 0712 	bgte e3fbc <__HEAP_SIZE_FOR_CORE_+0x63fbc>
    1bbc:	0000      	beq 1bbc <__HALF_BANK_SIZE_+0xbbc>
    1bbe:	271a      	add r1,r1,r6
    1bc0:	0004      	ldrb r0,[r0]
    1bc2:	0500      	beq 1bcc <__HALF_BANK_SIZE_+0xbcc>
    1bc4:	0281      	ldrb r0,[r0,r5]
    1bc6:	0873 0000 	*unknown*
    1bca:	0800      	beq 1bda <__HALF_BANK_SIZE_+0xbda>
    1bcc:	05d7      	float r0,r1
    1bce:	0000      	beq 1bce <__HALF_BANK_SIZE_+0xbce>
    1bd0:	08ed 0000 	ldrd r0,[r2],+r1
    1bd4:	b809 0000 	ldrb r5,[r6,+r0]
    1bd8:	1800      	beq 1c08 <__HALF_BANK_SIZE_+0xc08>
    1bda:	1b00      	beq 1c10 <__HALF_BANK_SIZE_+0xc10>
    1bdc:	f901      	ldrb r7,[r6,r2]
    1bde:	0008 1300 	beq 261bde <__PROG_SIZE_FOR_CORE_+0x161bde>
    1be2:	046d 0000 	ldrd r0,[r1],+r0
    1be6:	0f00      	beq 1c04 <__HALF_BANK_SIZE_+0xc04>
    1be8:	ed04      	ldrb r7,[r3,0x2]
    1bea:	0008 0f00 	beq 1e1bea <__PROG_SIZE_FOR_CORE_+0xe1bea>
    1bee:	6604      	ldrb r3,[r1,0x4]
    1bf0:	0001      	ldrb r0,[r0,r0]
    1bf2:	1b00      	beq 1c28 <__HALF_BANK_SIZE_+0xc28>
    1bf4:	1101      	ldrb r0,[r4,r2]
    1bf6:	0009 1300 	ldrb r0,[r32,+r48]
    1bfa:	004b 0000 	*unknown*
    1bfe:	0f00      	beq 1c1c <__HALF_BANK_SIZE_+0xc1c>
    1c00:	1704      	ldrb r0,[r5,0x6]
    1c02:	0009 0f00 	ldrb r0,[r24,+r48]
    1c06:	0504      	ldrb r0,[r1,0x2]
    1c08:	0009 0800 	ldrb r0,[r16,+r0]
    1c0c:	0674      	strd r0,[r1,0x4]
    1c0e:	0000      	beq 1c0e <__HALF_BANK_SIZE_+0xc0e>
    1c10:	092d 0000 	ldrh r0,[r2],+r2
    1c14:	b809 0000 	ldrb r5,[r6,+r0]
    1c18:	0200      	beq 1c1c <__HALF_BANK_SIZE_+0xc1c>
    1c1a:	1c00      	beq 1c52 <__HALF_BANK_SIZE_+0xc52>
    1c1c:	c001      	ldrb r6,[r0,r0]
    1c1e:	0004      	ldrb r0,[r0]
    1c20:	0100      	beq 1c22 <__HALF_BANK_SIZE_+0xc22>
    1c22:	0140      	blteu 1c24 <__HALF_BANK_SIZE_+0xc24>
    1c24:	003c 8e00 	strh r32,[r24],+0x0
    1c28:	0170      	bgte 1c2a <__HALF_BANK_SIZE_+0xc2a>
    1c2a:	8e00      	beq 1b46 <__HALF_BANK_SIZE_+0xb46>
    1c2c:	003e 0000 	*unknown*
    1c30:	ef01      	ldrb r7,[r3,r6]
    1c32:	0009 1d00 	ldrb r0,[r56,+r16]
    1c36:	03d6      	lsl r0,r0,0x1e
    1c38:	0000      	beq 1c38 <__HALF_BANK_SIZE_+0xc38>
    1c3a:	4001      	ldrb r2,[r0,r0]
    1c3c:	004b 0000 	*unknown*
    1c40:	005f 0000 	*unknown*
    1c44:	641e      	bitr r3,r1
    1c46:	0100      	beq 1c48 <__HALF_BANK_SIZE_+0xc48>
    1c48:	fa40      	blteu 1c3c <__HALF_BANK_SIZE_+0xc3c>
    1c4a:	0000      	beq 1c4a <__HALF_BANK_SIZE_+0xc4a>
    1c4c:	7d00      	beq 1d46 <__HALF_BANK_SIZE_+0xd46>
    1c4e:	0000      	beq 1c4e <__HALF_BANK_SIZE_+0xc4e>
    1c50:	1f00      	beq 1c8e <__HALF_BANK_SIZE_+0xc8e>
    1c52:	0070      	bgte 1c52 <__HALF_BANK_SIZE_+0xc52>
    1c54:	4301      	ldrb r2,[r0,r6]
    1c56:	02a7      	fmul r0,r0,r5
    1c58:	0000      	beq 1c58 <__HALF_BANK_SIZE_+0xc58>
    1c5a:	00b4      	strh r0,[r0,0x1]
    1c5c:	0000      	beq 1c5c <__HALF_BANK_SIZE_+0xc5c>
    1c5e:	d120      	bgtu 1c00 <__HALF_BANK_SIZE_+0xc00>
    1c60:	0004      	ldrb r0,[r0]
    1c62:	0100      	beq 1c64 <__HALF_BANK_SIZE_+0xc64>
    1c64:	ef44      	ldr r7,[r3,0x6]
    1c66:	0009 dd00 	ldrb r48,[r56,+r16]
    1c6a:	0000      	beq 1c6a <__HALF_BANK_SIZE_+0xc6a>
    1c6c:	2000      	beq 1cac <__HALF_BANK_SIZE_+0xcac>
    1c6e:	00bd 0000 	strh r0,[r0],+r1
    1c72:	4501      	ldrb r2,[r1,r2]
    1c74:	09f5      	strd r0,[r2],r3
    1c76:	0000      	beq 1c76 <__HALF_BANK_SIZE_+0xc76>
    1c78:	00fd 0000 	strd r0,[r0],+r1
    1c7c:	6e1f 0100 	*unknown*
    1c80:	4b46      	lsr r2,r2,0x1a
    1c82:	0000      	beq 1c82 <__HALF_BANK_SIZE_+0xc82>
    1c84:	7000      	beq 1d64 <__HALF_BANK_SIZE_+0xd64>
    1c86:	0001      	ldrb r0,[r0,r0]
    1c88:	1f00      	beq 1cc6 <__HALF_BANK_SIZE_+0xcc6>
    1c8a:	0069 4701 	*unknown*
    1c8e:	004b 0000 	*unknown*
    1c92:	018e      	asr r0,r0,0xc
    1c94:	0000      	beq 1c94 <__HALF_BANK_SIZE_+0xc94>
    1c96:	661f 006e 	*unknown*
    1c9a:	4801      	ldrb r2,[r2,r0]
    1c9c:	02bf 0000 	*unknown*
    1ca0:	01e1      	ldrd r0,[r0,r3]
    1ca2:	0000      	beq 1ca2 <__HALF_BANK_SIZE_+0xca2>
    1ca4:	2121      	ldrh r1,[r0,r2]
    1ca6:	0005      	ldrb r0,[r0],r0
    1ca8:	0100      	beq 1caa <__HALF_BANK_SIZE_+0xcaa>
    1caa:	224f 0000 	*unknown*
    1cae:	0000      	beq 1cae <__HALF_BANK_SIZE_+0xcae>
    1cb0:	09e2      	swi 0x2
    1cb2:	0000      	beq 1cb2 <__HALF_BANK_SIZE_+0xcb2>
    1cb4:	691f 646e 	*unknown*
    1cb8:	0100      	beq 1cba <__HALF_BANK_SIZE_+0xcba>
    1cba:	4b5c 0000 	str r2,[r2,+0x6]
    1cbe:	0a00      	beq 1cd2 <__HALF_BANK_SIZE_+0xcd2>
    1cc0:	0002      	moveq r0,r0
    1cc2:	2300      	beq 1d08 <__HALF_BANK_SIZE_+0xd08>
    1cc4:	00f0      	bl 1cc4 <__HALF_BANK_SIZE_+0xcc4>
    1cc6:	8e00      	beq 1be2 <__HALF_BANK_SIZE_+0xbe2>
    1cc8:	0124      	ldrh r0,[r0,0x2]
    1cca:	0250      	bltu 1cce <__HALF_BANK_SIZE_+0xcce>
    1ccc:	007b 0000 	*unknown*
    1cd0:	5823      	mov r2,0xc1
    1cd2:	0001      	ldrb r0,[r0,r0]
    1cd4:	248e      	asr r1,r1,0x4
    1cd6:	5001      	ldrb r2,[r4,r0]
    1cd8:	7702 0000 	*unknown*
    1cdc:	0f00      	beq 1cfa <__HALF_BANK_SIZE_+0xcfa>
    1cde:	a704      	ldrb r5,[r1,0x6]
    1ce0:	0002      	moveq r0,r0
    1ce2:	0f00      	beq 1d00 <__HALF_BANK_SIZE_+0xd00>
    1ce4:	0704      	ldrb r0,[r1,0x6]
    1ce6:	0002      	moveq r0,r0
    1ce8:	2500      	beq 1d32 <__HALF_BANK_SIZE_+0xd32>
    1cea:	03b1      	strh r0,[r0,r7]
    1cec:	0000      	beq 1cec <__HALF_BANK_SIZE_+0xcec>
    1cee:	3305      	ldrb r1,[r4],r6
    1cf0:	0903      	mov r0,0x48
    1cf2:	000a      	eor r0,r0,r0
    1cf4:	0100      	beq 1cf6 <__HALF_BANK_SIZE_+0xcf6>
    1cf6:	1601      	ldrb r0,[r5,r4]
    1cf8:	046d 0000 	ldrd r0,[r1],+r0
	...

Disassembly of section .debug_abbrev:

00000000 <.debug_abbrev>:
   0:	1101      	ldrb r0,[r4,r2]
   2:	2501      	ldrb r1,[r1,r2]
   4:	130e      	asr r0,r4,0x18
   6:	030b 110e 	*unknown*
   a:	1201      	ldrb r0,[r4,r4]
   c:	1001      	ldrb r0,[r4,r0]
   e:	0006      	lsr r0,r0,0x0
  10:	0200      	beq 14 <__CORE_COL_+0xc>
  12:	0024      	ldrh r0,[r0]
  14:	0b0b 0b3e 	*unknown*
  18:	0e03      	mov r0,0x70
  1a:	0000      	beq 1a <__CORE_COL_+0x12>
  1c:	2403      	mov r1,0x20
  1e:	0b00      	beq 34 <_e_group_config+0xc>
  20:	3e0b 030b 	*unknown*
  24:	0008 0400 	beq 80024 <__HEAP_SIZE_FOR_CORE_+0x24>
  28:	0016      	lsl r0,r0,0x0
  2a:	0e03      	mov r0,0x70
  2c:	0b3a      	sub r0,r2,r6
  2e:	0b3b 1349 	*unknown*
  32:	0000      	beq 32 <_e_group_config+0xa>
  34:	1605      	ldrb r0,[r5],r4
  36:	0300      	beq 3c <_e_group_config+0x14>
  38:	3a0e      	asr r1,r6,0x10
  3a:	3b0b 4905 	*unknown*
  3e:	0013      	add r0,r0,0
  40:	0600      	beq 4c <_e_group_config+0x24>
  42:	0117      	fsub r0,r0,r2
  44:	0b0b 0b3a 	*unknown*
  48:	0b3b 1301 	*unknown*
  4c:	0000      	beq 4c <_e_group_config+0x24>
  4e:	0d07      	fadd r0,r3,r2
  50:	0300      	beq 56 <_e_emem_config+0x6>
  52:	3a0e      	asr r1,r6,0x10
  54:	3b0b 490b 	*unknown*
  58:	0013      	add r0,r0,0
  5a:	0800      	beq 6a <init+0x6>
  5c:	0101      	ldrb r0,[r0,r2]
  5e:	1349 1301 	*unknown*
  62:	0000      	beq 62 <.normal_start+0xa>
  64:	2109 4900 	ldrb r17,[r16,+r18]
  68:	2f13      	add r1,r3,-2
  6a:	000b 0a00 	*unknown*
  6e:	0113      	add r0,r0,2
  70:	0b0b 0b3a 	*unknown*
  74:	0b3b 1301 	*unknown*
  78:	0000      	beq 78 <init+0x14>
  7a:	0d0b 0300 	*unknown*
  7e:	3a0e      	asr r1,r6,0x10
  80:	3b0b 490b 	*unknown*
  84:	3813      	add r1,r6,0
  86:	000a      	eor r0,r0,r0
  88:	0c00      	beq a0 <_main+0x20>
  8a:	000f 0b0b 	*unknown*
  8e:	0000      	beq 8e <_main+0xe>
  90:	130d 0301 	*unknown*
  94:	0b0e      	asr r0,r2,0x18
  96:	3a0b 3b0b 	*unknown*
  9a:	010b 0013 	*unknown*
  9e:	0e00      	beq ba <_main+0x3a>
  a0:	000d 0803 	*unknown*
  a4:	0b3a      	sub r0,r2,r6
  a6:	0b3b 1349 	*unknown*
  aa:	0a38 0000 	bgteu be <_main+0x3e>
  ae:	0f0f 0b00 	*unknown*
  b2:	490b 0013 	*unknown*
  b6:	1000      	beq d6 <_main+0x56>
  b8:	0113      	add r0,r0,2
  ba:	0e03      	mov r0,0x70
  bc:	050b 0b3a 	*unknown*
  c0:	0b3b 1301 	*unknown*
  c4:	0000      	beq c4 <_main+0x44>
  c6:	1511      	strb r0,[r5,r2]
  c8:	2700      	beq 116 <_main+0x96>
  ca:	000c 1200 	ldrb r0,[r32],+0x0
  ce:	0115      	strb r0,[r0],r2
  d0:	0c27      	fmul r0,r3,r0
  d2:	1349 1301 	*unknown*
  d6:	0000      	beq d6 <_main+0x56>
  d8:	0513      	add r0,r1,2
  da:	4900      	beq 16c <_main+0xec>
  dc:	0013      	add r0,r0,0
  de:	1400      	beq 106 <_main+0x86>
  e0:	0113      	add r0,r0,2
  e2:	0e03      	mov r0,0x70
  e4:	050b 0b3a 	*unknown*
  e8:	053b 1301 	*unknown*
  ec:	0000      	beq ec <_main+0x6c>
  ee:	0d15      	strb r0,[r3],r2
  f0:	0300      	beq f6 <_main+0x76>
  f2:	3a0e      	asr r1,r6,0x10
  f4:	3b0b 4905 	*unknown*
  f8:	3813      	add r1,r6,0
  fa:	000a      	eor r0,r0,r0
  fc:	1600      	beq 128 <_main+0xa8>
  fe:	0026      	lsr r0,r0,0x1
 100:	1349 0000 	ldr r0,[r4,+r6]
 104:	1317      	fsub r0,r4,r6
 106:	0301      	ldrb r0,[r0,r6]
 108:	0b0e      	asr r0,r2,0x18
 10a:	3a0b 3b0b 	*unknown*
 10e:	0105      	ldrb r0,[r0],r2
 110:	0013      	add r0,r0,0
 112:	1800      	beq 142 <_main+0xc2>
 114:	0113      	add r0,r0,2
 116:	0b0b 0b3a 	*unknown*
 11a:	053b 1301 	*unknown*
 11e:	0000      	beq 11e <_main+0x9e>
 120:	1719 0b01 	*unknown*
 124:	3a0b 3b0b 	*unknown*
 128:	0105      	ldrb r0,[r0],r2
 12a:	0013      	add r0,r0,0
 12c:	1a00      	beq 160 <_main+0xe0>
 12e:	000d 0e03 	*unknown*
 132:	0b3a      	sub r0,r2,r6
 134:	053b 1349 	*unknown*
 138:	0000      	beq 138 <_main+0xb8>
 13a:	151b 2701 	*unknown*
 13e:	010c 0013 	ldrb r0,[r0,+0x9a]
 142:	1c00      	beq 17a <_main+0xfa>
 144:	012e      	asr r0,r0,0x9
 146:	0c3f 0e03 	*unknown*
 14a:	0b3a      	sub r0,r2,r6
 14c:	0b3b 0c27 	sub r0,r26,318
 150:	0111      	strb r0,[r0,r2]
 152:	0112      	movfs r0,config
 154:	0640      	blteu 160 <_main+0xe0>
 156:	4296      	lsl r2,r0,0x14
 158:	010c 0013 	ldrb r0,[r0,+0x9a]
 15c:	1d00      	beq 196 <_epiphany_start+0x16>
 15e:	0005      	ldrb r0,[r0],r0
 160:	0e03      	mov r0,0x70
 162:	0b3a      	sub r0,r2,r6
 164:	0b3b 1349 	*unknown*
 168:	0602 0000 	*unknown*
 16c:	891e 0182 	*unknown*
 170:	1101      	ldrb r0,[r4,r2]
 172:	0101      	ldrb r0,[r0,r2]
 174:	0013      	add r0,r0,0
 176:	1f00      	beq 1b4 <_epiphany_start+0x34>
 178:	828a      	eor r4,r0,r5
 17a:	0001      	ldrb r0,[r0,r0]
 17c:	0a02 4291 	*unknown*
 180:	000a      	eor r0,r0,r0
 182:	2000      	beq 1c2 <_epiphany_start+0x42>
 184:	8289 0101 	*unknown*
 188:	0111      	strb r0,[r0,r2]
 18a:	0000      	beq 18a <_epiphany_start+0xa>
 18c:	3421      	ldrh r1,[r5,r0]
 18e:	0300      	beq 194 <_epiphany_start+0x14>
 190:	3a0e      	asr r1,r6,0x10
 192:	3b0b 4905 	*unknown*
 196:	3f13      	add r1,r7,-2
 198:	3c0c 000c 	ldrb r1,[r7,+0x60]
 19c:	0000      	beq 19c <_epiphany_start+0x1c>
 19e:	1101      	ldrb r0,[r4,r2]
 1a0:	2501      	ldrb r1,[r1,r2]
 1a2:	130e      	asr r0,r4,0x18
 1a4:	030b 100e 	*unknown*
 1a8:	0006      	lsr r0,r0,0x0
 1aa:	0200      	beq 1ae <_epiphany_start+0x2e>
 1ac:	0024      	ldrh r0,[r0]
 1ae:	0b0b 0b3e 	*unknown*
 1b2:	0e03      	mov r0,0x70
 1b4:	0000      	beq 1b4 <_epiphany_start+0x34>
 1b6:	2403      	mov r1,0x20
 1b8:	0b00      	beq 1ce <_epiphany_start+0x4e>
 1ba:	3e0b 030b 	*unknown*
 1be:	0008 0400 	beq 801be <__HEAP_SIZE_FOR_CORE_+0x1be>
 1c2:	0016      	lsl r0,r0,0x0
 1c4:	0e03      	mov r0,0x70
 1c6:	0b3a      	sub r0,r2,r6
 1c8:	0b3b 1349 	*unknown*
 1cc:	0000      	beq 1cc <_epiphany_start+0x4c>
 1ce:	1605      	ldrb r0,[r5],r4
 1d0:	0300      	beq 1d6 <_epiphany_start+0x56>
 1d2:	3a0e      	asr r1,r6,0x10
 1d4:	3b0b 4905 	*unknown*
 1d8:	0013      	add r0,r0,0
 1da:	0600      	beq 1e6 <_epiphany_start+0x66>
 1dc:	0117      	fsub r0,r0,r2
 1de:	0b0b 0b3a 	*unknown*
 1e2:	0b3b 1301 	*unknown*
 1e6:	0000      	beq 1e6 <_epiphany_start+0x66>
 1e8:	0d07      	fadd r0,r3,r2
 1ea:	0300      	beq 1f0 <RDS+0x8>
 1ec:	3a0e      	asr r1,r6,0x10
 1ee:	3b0b 490b 	*unknown*
 1f2:	0013      	add r0,r0,0
 1f4:	0800      	beq 204 <RDS+0x1c>
 1f6:	0101      	ldrb r0,[r0,r2]
 1f8:	1349 1301 	*unknown*
 1fc:	0000      	beq 1fc <RDS+0x14>
 1fe:	2109 4900 	ldrb r17,[r16,+r18]
 202:	2f13      	add r1,r3,-2
 204:	000b 0a00 	*unknown*
 208:	0113      	add r0,r0,2
 20a:	0b0b 0b3a 	*unknown*
 20e:	0b3b 1301 	*unknown*
 212:	0000      	beq 212 <_deregister_tm_clones+0x2>
 214:	0d0b 0300 	*unknown*
 218:	3a0e      	asr r1,r6,0x10
 21a:	3b0b 490b 	*unknown*
 21e:	3813      	add r1,r6,0
 220:	000a      	eor r0,r0,r0
 222:	0c00      	beq 23a <_deregister_tm_clones+0x2a>
 224:	000f 0b0b 	*unknown*
 228:	0000      	beq 228 <_deregister_tm_clones+0x18>
 22a:	130d 0301 	*unknown*
 22e:	0b0e      	asr r0,r2,0x18
 230:	3a0b 3b0b 	*unknown*
 234:	010b 0013 	*unknown*
 238:	0e00      	beq 254 <_register_tm_clones+0x18>
 23a:	000d 0803 	*unknown*
 23e:	0b3a      	sub r0,r2,r6
 240:	0b3b 1349 	*unknown*
 244:	0a38 0000 	bgteu 258 <_register_tm_clones+0x1c>
 248:	0f0f 0b00 	*unknown*
 24c:	490b 0013 	*unknown*
 250:	1000      	beq 270 <___do_global_dtors_aux+0x4>
 252:	0113      	add r0,r0,2
 254:	0e03      	mov r0,0x70
 256:	050b 0b3a 	*unknown*
 25a:	0b3b 1301 	*unknown*
 25e:	0000      	beq 25e <_register_tm_clones+0x22>
 260:	1511      	strb r0,[r5,r2]
 262:	2700      	beq 2b0 <_frame_dummy+0x10>
 264:	000c 1200 	ldrb r0,[r32],+0x0
 268:	0115      	strb r0,[r0],r2
 26a:	0c27      	fmul r0,r3,r0
 26c:	1349 1301 	*unknown*
 270:	0000      	beq 270 <___do_global_dtors_aux+0x4>
 272:	0513      	add r0,r1,2
 274:	4900      	beq 306 <_e_wait+0xe>
 276:	0013      	add r0,r0,0
 278:	1400      	beq 2a0 <_frame_dummy>
 27a:	0113      	add r0,r0,2
 27c:	0e03      	mov r0,0x70
 27e:	050b 0b3a 	*unknown*
 282:	053b 1301 	*unknown*
 286:	0000      	beq 286 <___do_global_dtors_aux+0x1a>
 288:	0d15      	strb r0,[r3],r2
 28a:	0300      	beq 290 <___do_global_dtors_aux+0x24>
 28c:	3a0e      	asr r1,r6,0x10
 28e:	3b0b 4905 	*unknown*
 292:	3813      	add r1,r6,0
 294:	000a      	eor r0,r0,r0
 296:	1600      	beq 2c2 <_frame_dummy+0x22>
 298:	0026      	lsr r0,r0,0x1
 29a:	1349 0000 	ldr r0,[r4,+r6]
 29e:	1317      	fsub r0,r4,r6
 2a0:	0301      	ldrb r0,[r0,r6]
 2a2:	0b0e      	asr r0,r2,0x18
 2a4:	3a0b 3b0b 	*unknown*
 2a8:	0105      	ldrb r0,[r0],r2
 2aa:	0013      	add r0,r0,0
 2ac:	1800      	beq 2dc <_wand_isr+0x8>
 2ae:	0113      	add r0,r0,2
 2b0:	0b0b 0b3a 	*unknown*
 2b4:	053b 1301 	*unknown*
 2b8:	0000      	beq 2b8 <_frame_dummy+0x18>
 2ba:	1719 0b01 	*unknown*
 2be:	3a0b 3b0b 	*unknown*
 2c2:	0105      	ldrb r0,[r0],r2
 2c4:	0013      	add r0,r0,0
 2c6:	1a00      	beq 2fa <_e_wait+0x2>
 2c8:	000d 0e03 	*unknown*
 2cc:	0b3a      	sub r0,r2,r6
 2ce:	053b 1349 	*unknown*
 2d2:	0000      	beq 2d2 <_frame_dummy+0x32>
 2d4:	151b 2701 	*unknown*
 2d8:	010c 0013 	ldrb r0,[r0,+0x9a]
 2dc:	1c00      	beq 314 <_e_wait+0x1c>
 2de:	0034      	strh r0,[r0]
 2e0:	0e03      	mov r0,0x70
 2e2:	0b3a      	sub r0,r2,r6
 2e4:	0b3b 1349 	*unknown*
 2e8:	0a02 0000 	*unknown*
 2ec:	341d 0300 	strb r1,[r5],+r48
 2f0:	3a0e      	asr r1,r6,0x10
 2f2:	3b0b 4905 	*unknown*
 2f6:	3f13      	add r1,r7,-2
 2f8:	020c 000a 	ldrb r0,[r0,+0x54]
 2fc:	0000      	beq 2fc <_e_wait+0x4>
 2fe:	1101      	ldrb r0,[r4,r2]
 300:	2501      	ldrb r1,[r1,r2]
 302:	130e      	asr r0,r4,0x18
 304:	030b 110e 	*unknown*
 308:	1201      	ldrb r0,[r4,r4]
 30a:	1001      	ldrb r0,[r4,r0]
 30c:	0006      	lsr r0,r0,0x0
 30e:	0200      	beq 312 <_e_wait+0x1a>
 310:	0024      	ldrh r0,[r0]
 312:	0b0b 0b3e 	*unknown*
 316:	0e03      	mov r0,0x70
 318:	0000      	beq 318 <_e_wait+0x20>
 31a:	2403      	mov r1,0x20
 31c:	0b00      	beq 332 <_e_wait+0x3a>
 31e:	3e0b 030b 	*unknown*
 322:	0008 0400 	beq 80322 <__HEAP_SIZE_FOR_CORE_+0x322>
 326:	0016      	lsl r0,r0,0x0
 328:	0e03      	mov r0,0x70
 32a:	0b3a      	sub r0,r2,r6
 32c:	0b3b 1349 	*unknown*
 330:	0000      	beq 330 <_e_wait+0x38>
 332:	1605      	ldrb r0,[r5],r4
 334:	0300      	beq 33a <_e_wait+0x42>
 336:	3a0e      	asr r1,r6,0x10
 338:	3b0b 4905 	*unknown*
 33c:	0013      	add r0,r0,0
 33e:	0600      	beq 34a <_e_wait+0x52>
 340:	0117      	fsub r0,r0,r2
 342:	0b0b 0b3a 	*unknown*
 346:	0b3b 1301 	*unknown*
 34a:	0000      	beq 34a <_e_wait+0x52>
 34c:	0d07      	fadd r0,r3,r2
 34e:	0300      	beq 354 <_e_irq_attach+0x4>
 350:	3a0e      	asr r1,r6,0x10
 352:	3b0b 490b 	*unknown*
 356:	0013      	add r0,r0,0
 358:	0800      	beq 368 <_e_irq_global_mask+0x4>
 35a:	0101      	ldrb r0,[r0,r2]
 35c:	1349 1301 	*unknown*
 360:	0000      	beq 360 <_e_irq_attach+0x10>
 362:	2109 4900 	ldrb r17,[r16,+r18]
 366:	2f13      	add r1,r3,-2
 368:	000b 0a00 	*unknown*
 36c:	0113      	add r0,r0,2
 36e:	0b0b 0b3a 	*unknown*
 372:	0b3b 1301 	*unknown*
 376:	0000      	beq 376 <_e_irq_global_mask+0x12>
 378:	0d0b 0300 	*unknown*
 37c:	3a0e      	asr r1,r6,0x10
 37e:	3b0b 490b 	*unknown*
 382:	3813      	add r1,r6,0
 384:	000a      	eor r0,r0,r0
 386:	0c00      	beq 39e <_e_irq_mask+0x26>
 388:	000f 0b0b 	*unknown*
 38c:	0000      	beq 38c <_e_irq_mask+0x14>
 38e:	130d 0301 	*unknown*
 392:	0b0e      	asr r0,r2,0x18
 394:	3a0b 3b0b 	*unknown*
 398:	010b 0013 	*unknown*
 39c:	0e00      	beq 3b8 <_e_irq_mask+0x40>
 39e:	000d 0803 	*unknown*
 3a2:	0b3a      	sub r0,r2,r6
 3a4:	0b3b 1349 	*unknown*
 3a8:	0a38 0000 	bgteu 3bc <_e_irq_mask+0x44>
 3ac:	0f0f 0b00 	*unknown*
 3b0:	490b 0013 	*unknown*
 3b4:	1000      	beq 3d4 <_e_irq_mask+0x5c>
 3b6:	0113      	add r0,r0,2
 3b8:	0e03      	mov r0,0x70
 3ba:	050b 0b3a 	*unknown*
 3be:	0b3b 1301 	*unknown*
 3c2:	0000      	beq 3c2 <_e_irq_mask+0x4a>
 3c4:	1511      	strb r0,[r5,r2]
 3c6:	2700      	beq 414 <_e_reg_read+0x24>
 3c8:	000c 1200 	ldrb r0,[r32],+0x0
 3cc:	0115      	strb r0,[r0],r2
 3ce:	0c27      	fmul r0,r3,r0
 3d0:	1349 1301 	*unknown*
 3d4:	0000      	beq 3d4 <_e_irq_mask+0x5c>
 3d6:	0513      	add r0,r1,2
 3d8:	4900      	beq 46a <_e_reg_write+0x2>
 3da:	0013      	add r0,r0,0
 3dc:	1400      	beq 404 <_e_reg_read+0x14>
 3de:	0113      	add r0,r0,2
 3e0:	0e03      	mov r0,0x70
 3e2:	050b 0b3a 	*unknown*
 3e6:	053b 1301 	*unknown*
 3ea:	0000      	beq 3ea <_e_irq_mask+0x72>
 3ec:	0d15      	strb r0,[r3],r2
 3ee:	0300      	beq 3f4 <_e_reg_read+0x4>
 3f0:	3a0e      	asr r1,r6,0x10
 3f2:	3b0b 4905 	*unknown*
 3f6:	3813      	add r1,r6,0
 3f8:	000a      	eor r0,r0,r0
 3fa:	1600      	beq 426 <_e_reg_read+0x36>
 3fc:	0026      	lsr r0,r0,0x1
 3fe:	1349 0000 	ldr r0,[r4,+r6]
 402:	1317      	fsub r0,r4,r6
 404:	0301      	ldrb r0,[r0,r6]
 406:	0b0e      	asr r0,r2,0x18
 408:	3a0b 3b0b 	*unknown*
 40c:	0105      	ldrb r0,[r0],r2
 40e:	0013      	add r0,r0,0
 410:	1800      	beq 440 <_e_reg_read+0x50>
 412:	0113      	add r0,r0,2
 414:	0b0b 0b3a 	*unknown*
 418:	053b 1301 	*unknown*
 41c:	0000      	beq 41c <_e_reg_read+0x2c>
 41e:	1719 0b01 	*unknown*
 422:	3a0b 3b0b 	*unknown*
 426:	0105      	ldrb r0,[r0],r2
 428:	0013      	add r0,r0,0
 42a:	1a00      	beq 45e <_e_reg_read+0x6e>
 42c:	000d 0e03 	*unknown*
 430:	0b3a      	sub r0,r2,r6
 432:	053b 1349 	*unknown*
 436:	0000      	beq 436 <_e_reg_read+0x46>
 438:	151b 2701 	*unknown*
 43c:	010c 0013 	ldrb r0,[r0,+0x9a]
 440:	1c00      	beq 478 <_e_reg_write+0x10>
 442:	012e      	asr r0,r0,0x9
 444:	0c3f 0e03 	*unknown*
 448:	0b3a      	sub r0,r2,r6
 44a:	0b3b 0c27 	sub r0,r26,318
 44e:	0111      	strb r0,[r0,r2]
 450:	0112      	movfs r0,config
 452:	0640      	blteu 45e <_e_reg_read+0x6e>
 454:	4296      	lsl r2,r0,0x14
 456:	010c 0013 	ldrb r0,[r0,+0x9a]
 45a:	1d00      	beq 494 <_e_reg_write+0x2c>
 45c:	0005      	ldrb r0,[r0],r0
 45e:	0e03      	mov r0,0x70
 460:	0b3a      	sub r0,r2,r6
 462:	0b3b 1349 	*unknown*
 466:	0602 0000 	*unknown*
 46a:	051e 0300 	*unknown*
 46e:	3a08 3b0b 	beq 761ae2 <__PROG_SIZE_FOR_CORE_+0x661ae2>
 472:	490b 0213 	*unknown*
 476:	0006      	lsr r0,r0,0x0
 478:	1f00      	beq 4b6 <_e_reg_write+0x4e>
 47a:	0034      	strh r0,[r0]
 47c:	0803      	mov r0,0x40
 47e:	0b3a      	sub r0,r2,r6
 480:	0b3b 1349 	*unknown*
 484:	0602 0000 	*unknown*
 488:	3420      	bgtu 4f0 <_e_get_global_address+0x4>
 48a:	0300      	beq 490 <_e_reg_write+0x28>
 48c:	3a0e      	asr r1,r6,0x10
 48e:	3b0b 490b 	*unknown*
 492:	0213      	add r0,r0,-4
 494:	0006      	lsr r0,r0,0x0
 496:	2100      	beq 4d8 <_e_reg_write+0x70>
 498:	000a      	eor r0,r0,r0
 49a:	0e03      	mov r0,0x70
 49c:	0b3a      	sub r0,r2,r6
 49e:	0b3b 0000 	sub r0,r2,6
 4a2:	0b22 5501 	*unknown*
 4a6:	0106      	lsr r0,r0,0x8
 4a8:	0013      	add r0,r0,0
 4aa:	2300      	beq 4f0 <_e_get_global_address+0x4>
 4ac:	8289 0101 	*unknown*
 4b0:	0111      	strb r0,[r0,r2]
 4b2:	0000      	beq 4b2 <_e_reg_write+0x4a>
 4b4:	8a24      	ldrh r4,[r2,0x4]
 4b6:	0182      	wand
 4b8:	0200      	beq 4bc <_e_reg_write+0x54>
 4ba:	910a      	eor r4,r4,r2
 4bc:	0a42 0000 	*unknown*
 4c0:	3425      	ldrh r1,[r5],r0
 4c2:	0300      	beq 4c8 <_e_reg_write+0x60>
 4c4:	3a0e      	asr r1,r6,0x10
 4c6:	3b0b 4905 	*unknown*
 4ca:	3f13      	add r1,r7,-2
 4cc:	3c0c 000c 	ldrb r1,[r7,+0x60]
	...

Disassembly of section .debug_line:

00000000 <.debug_line>:
   0:	018e      	asr r0,r0,0xc
   2:	0000      	beq 2 <__CORE_NUM_+0x2>
   4:	0002      	moveq r0,r0
   6:	013e 0000 	*unknown*
   a:	0101      	ldrb r0,[r0,r2]
   c:	f2f6      	lsl r7,r4,0x17
   e:	000d 0101 	*unknown*
  12:	0101      	ldrb r0,[r0,r2]
  14:	0000      	beq 14 <__CORE_COL_+0xc>
  16:	0100      	beq 18 <__CORE_COL_+0x10>
  18:	0000      	beq 18 <__CORE_COL_+0x10>
  1a:	2f01      	ldrb r1,[r3,r6]
  1c:	6f68 656d 	bgt cadafa <__PROG_SIZE_FOR_CORE_+0xbadafa>
  20:	6c2f 6e69 	*unknown*
  24:	7261      	ldrd r3,[r4,r4]
  26:	2f6f 6f77 	*unknown*
  2a:	6b72 652f 	*unknown*
  2e:	6970      	bgte 100 <_main+0x80>
  30:	6870      	bgte 100 <_main+0x80>
  32:	6e61      	ldrd r3,[r3,r4]
  34:	2f79 6c62 	*unknown*
  38:	2d64      	ldrd r1,[r3,0x2]
  3a:	7065      	ldrd r3,[r4],r0
  3c:	7069 6168 	*unknown*
  40:	796e      	asr r3,r6,0xb
  42:	2e2f 672f 	*unknown*
  46:	6363      	mov r3,0x1b
  48:	692f 636e 	*unknown*
  4c:	756c 6564 	ldrd r27,[sp,-0x322]
  50:	2f00      	beq ae <_main+0x2e>
  52:	6f68 656d 	bgt cadb30 <__PROG_SIZE_FOR_CORE_+0xbadb30>
  56:	6c2f 6e69 	*unknown*
  5a:	7261      	ldrd r3,[r4,r4]
  5c:	2f6f 6f77 	*unknown*
  60:	6b72 652f 	*unknown*
  64:	6970      	bgte 136 <_main+0xb6>
  66:	6870      	bgte 136 <_main+0xb6>
  68:	6e61      	ldrd r3,[r3,r4]
  6a:	2f79 6473 	*unknown*
  6e:	2f6b 2e2e 	*unknown*
  72:	732f 6372 	*unknown*
  76:	2f77      	fabs rd,rn
  78:	656e      	asr r3,r1,0xb
  7a:	6c77      	fabs rd,rn
  7c:	6269 6c2f 	*unknown*
  80:	6269 2f63 	*unknown*
  84:	7473 6c64 	*unknown*
  88:	6269 2f00 	ldrd fp,[r24,+r52]
  8c:	6f68 656d 	bgt cadb6a <__PROG_SIZE_FOR_CORE_+0xbadb6a>
  90:	6c2f 6e69 	*unknown*
  94:	7261      	ldrd r3,[r4,r4]
  96:	2f6f 6f77 	*unknown*
  9a:	6b72 652f 	*unknown*
  9e:	6970      	bgte 170 <_main+0xf0>
  a0:	6870      	bgte 170 <_main+0xf0>
  a2:	6e61      	ldrd r3,[r3,r4]
  a4:	2f79 7273 	*unknown*
  a8:	7763      	mov r3,0xbb
  aa:	6e2f 7765 	*unknown*
  ae:	696c 2f62 	ldrd fp,[r26],-0x312
  b2:	696c 6362 	ldrd r27,[r2],-0x312
  b6:	692f 636e 	*unknown*
  ba:	756c 6564 	ldrd r27,[sp,-0x322]
  be:	2f00      	beq 11c <_main+0x9c>
  c0:	6f68 656d 	bgt cadb9e <__PROG_SIZE_FOR_CORE_+0xbadb9e>
  c4:	6c2f 6e69 	*unknown*
  c8:	7261      	ldrd r3,[r4,r4]
  ca:	2f6f 6f77 	*unknown*
  ce:	6b72 652f 	*unknown*
  d2:	6970      	bgte 1a4 <_epiphany_start+0x24>
  d4:	6870      	bgte 1a4 <_epiphany_start+0x24>
  d6:	6e61      	ldrd r3,[r3,r4]
  d8:	2f79 7273 	*unknown*
  dc:	7763      	mov r3,0xbb
  de:	6e2f 7765 	*unknown*
  e2:	696c 2f62 	ldrd fp,[r26],-0x312
  e6:	696c 6362 	ldrd r27,[r2],-0x312
  ea:	692f 636e 	*unknown*
  ee:	756c 6564 	ldrd r27,[sp,-0x322]
  f2:	732f 7379 	*unknown*
  f6:	0000      	beq f6 <_main+0x76>
  f8:	7865      	ldrd r3,[r6],r0
  fa:	7469 632e 	*unknown*
  fe:	0200      	beq 102 <_main+0x82>
 100:	0000      	beq 100 <_main+0x80>
 102:	7973 2f73 	*unknown*
 106:	6f6c 6b63 	ldrd r27,[r19],-0x31e
 10a:	682e      	asr r3,r2,0x1
 10c:	0300      	beq 112 <_main+0x92>
 10e:	0000      	beq 10e <_main+0x8e>
 110:	7973 2f73 	*unknown*
 114:	745f 7079 	*unknown*
 118:	7365      	ldrd r3,[r4],r6
 11a:	682e      	asr r3,r2,0x1
 11c:	0300      	beq 122 <_main+0xa2>
 11e:	0000      	beq 11e <_main+0x9e>
 120:	7473 6464 	*unknown*
 124:	6665      	ldrd r3,[r1],r4
 126:	682e      	asr r3,r2,0x1
 128:	0100      	beq 12a <_main+0xaa>
 12a:	0000      	beq 12a <_main+0xaa>
 12c:	7973 2f73 	*unknown*
 130:	6572 6e65 	*unknown*
 134:	2e74      	strd r1,[r3,0x4]
 136:	0068 0003 	bgt 736 <_end+0x86>
 13a:	7300      	beq 220 <_deregister_tm_clones+0x10>
 13c:	6474      	strd r3,[r1]
 13e:	696c 2e62 	ldrd fp,[r26],+0x312
 142:	0068 0003 	bgt 742 <_end+0x92>
 146:	0000      	beq 146 <_main+0xc6>
 148:	0500      	beq 152 <_main+0xd2>
 14a:	0002      	moveq r0,r0
 14c:	0000      	beq 14c <_main+0xcc>
 14e:	528e      	asr r2,r4,0x14
 150:	0500      	beq 15a <_main+0xda>
 152:	0402      	moveq r0,r1
 154:	0000      	beq 154 <_main+0xd4>
 156:	188e      	asr r0,r6,0x4
 158:	0500      	beq 162 <_main+0xe2>
 15a:	0e02 0000 	*unknown*
 15e:	168e      	asr r0,r5,0x14
 160:	0500      	beq 16a <_main+0xea>
 162:	1202 0000 	*unknown*
 166:	018e      	asr r0,r0,0xc
 168:	0500      	beq 172 <_main+0xf2>
 16a:	1402      	moveq r0,r5
 16c:	0000      	beq 16c <_main+0xec>
 16e:	188e      	asr r0,r6,0x4
 170:	0500      	beq 17a <_main+0xfa>
 172:	1602 0000 	*unknown*
 176:	198e      	asr r0,r6,0xc
 178:	0500      	beq 182 <_epiphany_start+0x2>
 17a:	2802      	moveq r1,r2
 17c:	0000      	beq 17c <_main+0xfc>
 17e:	188e      	asr r0,r6,0x4
 180:	0500      	beq 18a <_epiphany_start+0xa>
 182:	2a02 0000 	*unknown*
 186:	188e      	asr r0,r6,0x4
 188:	0500      	beq 192 <_epiphany_start+0x12>
 18a:	3602 0000 	*unknown*
 18e:	008e      	asr r0,r0,0x4
 190:	0101      	ldrb r0,[r0,r2]
 192:	0103      	mov r0,0x8
 194:	0000      	beq 194 <_epiphany_start+0x14>
 196:	0002      	moveq r0,r0
 198:	00f3 0000 	*unknown*
 19c:	0101      	ldrb r0,[r0,r2]
 19e:	f2f6      	lsl r7,r4,0x17
 1a0:	000d 0101 	*unknown*
 1a4:	0101      	ldrb r0,[r0,r2]
 1a6:	0000      	beq 1a6 <_epiphany_start+0x26>
 1a8:	0100      	beq 1aa <_epiphany_start+0x2a>
 1aa:	0000      	beq 1aa <_epiphany_start+0x2a>
 1ac:	2f01      	ldrb r1,[r3,r6]
 1ae:	6f68 656d 	bgt cadc8c <__PROG_SIZE_FOR_CORE_+0xbadc8c>
 1b2:	6c2f 6e69 	*unknown*
 1b6:	7261      	ldrd r3,[r4,r4]
 1b8:	2f6f 6f77 	*unknown*
 1bc:	6b72 652f 	*unknown*
 1c0:	6970      	bgte 292 <___do_global_dtors_aux+0x26>
 1c2:	6870      	bgte 292 <___do_global_dtors_aux+0x26>
 1c4:	6e61      	ldrd r3,[r3,r4]
 1c6:	2f79 6c62 	*unknown*
 1ca:	2d64      	ldrd r1,[r3,0x2]
 1cc:	7065      	ldrd r3,[r4],r0
 1ce:	7069 6168 	*unknown*
 1d2:	796e      	asr r3,r6,0xb
 1d4:	2e2f 672f 	*unknown*
 1d8:	6363      	mov r3,0x1b
 1da:	692f 636e 	*unknown*
 1de:	756c 6564 	ldrd r27,[sp,-0x322]
 1e2:	2f00      	beq 240 <_register_tm_clones+0x4>
 1e4:	6f68 656d 	bgt cadcc2 <__PROG_SIZE_FOR_CORE_+0xbadcc2>
 1e8:	6c2f 6e69 	*unknown*
 1ec:	7261      	ldrd r3,[r4,r4]
 1ee:	2f6f 6f77 	*unknown*
 1f2:	6b72 652f 	*unknown*
 1f6:	6970      	bgte 2c8 <_frame_dummy+0x28>
 1f8:	6870      	bgte 2c8 <_frame_dummy+0x28>
 1fa:	6e61      	ldrd r3,[r3,r4]
 1fc:	2f79 6473 	*unknown*
 200:	2f6b 2e2e 	*unknown*
 204:	732f 6372 	*unknown*
 208:	2f77      	fabs rd,rn
 20a:	656e      	asr r3,r1,0xb
 20c:	6c77      	fabs rd,rn
 20e:	6269 6c2f 	*unknown*
 212:	6269 2f63 	*unknown*
 216:	6572 6e65 	*unknown*
 21a:	0074      	strd r0,[r0]
 21c:	682f 6d6f 	*unknown*
 220:	2f65      	ldrd r1,[r3],r6
 222:	696c 616e 	ldrd r27,[r2,-0x372]
 226:	6f72 772f 	*unknown*
 22a:	726f 2f6b 	*unknown*
 22e:	7065      	ldrd r3,[r4],r0
 230:	7069 6168 	*unknown*
 234:	796e      	asr r3,r6,0xb
 236:	732f 6372 	*unknown*
 23a:	2f77      	fabs rd,rn
 23c:	656e      	asr r3,r1,0xb
 23e:	6c77      	fabs rd,rn
 240:	6269 6c2f 	*unknown*
 244:	6269 2f63 	*unknown*
 248:	6e69 6c63 	*unknown*
 24c:	6475      	strd r3,[r1],r0
 24e:	2f65      	ldrd r1,[r3],r6
 250:	7973 0073 	*unknown*
 254:	6c00      	beq 32c <_e_wait+0x34>
 256:	636f 2e6b 	*unknown*
 25a:	0068 0003 	bgt 85a <_end+0x1aa>
 25e:	5f00      	beq 31c <_e_wait+0x24>
 260:	7974      	strd r3,[r6,0x2]
 262:	6570      	bgte 32c <_e_wait+0x34>
 264:	2e73 0068 	*unknown*
 268:	0003      	mov r0,0x0
 26a:	7300      	beq 350 <_e_irq_attach>
 26c:	6474      	strd r3,[r1]
 26e:	6564      	ldrd r3,[r1,0x2]
 270:	2e66      	lsr r1,r3,0x13
 272:	0068 0001 	bgt 472 <_e_reg_write+0xa>
 276:	7200      	beq 35a <_e_irq_attach+0xa>
 278:	6565      	ldrd r3,[r1],r2
 27a:	746e      	asr r3,r5,0x3
 27c:	682e      	asr r3,r2,0x1
 27e:	0300      	beq 284 <___do_global_dtors_aux+0x18>
 280:	0000      	beq 280 <___do_global_dtors_aux+0x14>
 282:	6d69 7570 	*unknown*
 286:	6572 632e 	*unknown*
 28a:	0200      	beq 28e <___do_global_dtors_aux+0x22>
 28c:	0000      	beq 28c <___do_global_dtors_aux+0x20>
 28e:	0000      	beq 28e <___do_global_dtors_aux+0x22>
 290:	0205      	ldrb r0,[r0],r4
 292:	0038 8e00 	bgteu ff1c0292 <__exit+0x711bfcd2>
 296:	0100      	beq 298 <___do_global_dtors_aux+0x2c>
 298:	be01      	ldrb r5,[r7,r4]
 29a:	0002      	moveq r0,r0
 29c:	0200      	beq 2a0 <_frame_dummy>
 29e:	fb00      	beq 294 <___do_global_dtors_aux+0x28>
 2a0:	0000      	beq 2a0 <_frame_dummy>
 2a2:	0100      	beq 2a4 <_frame_dummy+0x4>
 2a4:	f601      	ldrb r7,[r5,r4]
 2a6:	0df2 0100 	*unknown*
 2aa:	0101      	ldrb r0,[r0,r2]
 2ac:	0001      	ldrb r0,[r0,r0]
 2ae:	0000      	beq 2ae <_frame_dummy+0xe>
 2b0:	0001      	ldrb r0,[r0,r0]
 2b2:	0100      	beq 2b4 <_frame_dummy+0x14>
 2b4:	682f 6d6f 	*unknown*
 2b8:	2f65      	ldrd r1,[r3],r6
 2ba:	696c 616e 	ldrd r27,[r2,-0x372]
 2be:	6f72 772f 	*unknown*
 2c2:	726f 2f6b 	*unknown*
 2c6:	7065      	ldrd r3,[r4],r0
 2c8:	7069 6168 	*unknown*
 2cc:	796e      	asr r3,r6,0xb
 2ce:	622f 646c 	*unknown*
 2d2:	652d 6970 	*unknown*
 2d6:	6870      	bgte 3a6 <_e_irq_mask+0x2e>
 2d8:	6e61      	ldrd r3,[r3,r4]
 2da:	2f79 2f2e 	*unknown*
 2de:	6367      	fix r3,r0
 2e0:	2f63      	mov r1,0x7b
 2e2:	6e69 6c63 	*unknown*
 2e6:	6475      	strd r3,[r1],r0
 2e8:	0065      	ldrd r0,[r0],r0
 2ea:	682f 6d6f 	*unknown*
 2ee:	2f65      	ldrd r1,[r3],r6
 2f0:	696c 616e 	ldrd r27,[r2,-0x372]
 2f4:	6f72 772f 	*unknown*
 2f8:	726f 2f6b 	*unknown*
 2fc:	7065      	ldrd r3,[r4],r0
 2fe:	7069 6168 	*unknown*
 302:	796e      	asr r3,r6,0xb
 304:	732f 6b64 	*unknown*
 308:	2e2f 2f2e 	*unknown*
 30c:	7273 7763 	*unknown*
 310:	6e2f 7765 	*unknown*
 314:	696c 2f62 	ldrd fp,[r26],-0x312
 318:	696c 6362 	ldrd r27,[r2],-0x312
 31c:	732f 6474 	*unknown*
 320:	696c 0062 	ldrd r3,[r2,+0x312]
 324:	682f 6d6f 	*unknown*
 328:	2f65      	ldrd r1,[r3],r6
 32a:	696c 616e 	ldrd r27,[r2,-0x372]
 32e:	6f72 772f 	*unknown*
 332:	726f 2f6b 	*unknown*
 336:	7065      	ldrd r3,[r4],r0
 338:	7069 6168 	*unknown*
 33c:	796e      	asr r3,r6,0xb
 33e:	732f 6372 	*unknown*
 342:	2f77      	fabs rd,rn
 344:	656e      	asr r3,r1,0xb
 346:	6c77      	fabs rd,rn
 348:	6269 6c2f 	*unknown*
 34c:	6269 2f63 	*unknown*
 350:	6e69 6c63 	*unknown*
 354:	6475      	strd r3,[r1],r0
 356:	2f65      	ldrd r1,[r3],r6
 358:	7973 0073 	*unknown*
 35c:	5f00      	beq 41a <_e_reg_read+0x2a>
 35e:	635f 6c61 	*unknown*
 362:	5f6c 7461 	ldrd r26,[r47,+0x30e]
 366:	7865      	ldrd r3,[r6],r0
 368:	7469 632e 	*unknown*
 36c:	0200      	beq 370 <_e_irq_global_mask+0xc>
 36e:	0000      	beq 36e <_e_irq_global_mask+0xa>
 370:	6f6c 6b63 	ldrd r27,[r19],-0x31e
 374:	682e      	asr r3,r2,0x1
 376:	0300      	beq 37c <_e_irq_mask+0x4>
 378:	0000      	beq 378 <_e_irq_mask>
 37a:	745f 7079 	*unknown*
 37e:	7365      	ldrd r3,[r4],r6
 380:	682e      	asr r3,r2,0x1
 382:	0300      	beq 388 <_e_irq_mask+0x10>
 384:	0000      	beq 384 <_e_irq_mask+0xc>
 386:	7473 6464 	*unknown*
 38a:	6665      	ldrd r3,[r1],r4
 38c:	682e      	asr r3,r2,0x1
 38e:	0100      	beq 390 <_e_irq_mask+0x18>
 390:	0000      	beq 390 <_e_irq_mask+0x18>
 392:	6572 6e65 	*unknown*
 396:	2e74      	strd r1,[r3,0x4]
 398:	0068 0003 	bgt 998 <_end+0x2e8>
 39c:	0000      	beq 39c <_e_irq_mask+0x24>
 39e:	0500      	beq 3a8 <_e_irq_mask+0x30>
 3a0:	3c02      	moveq r1,r7
 3a2:	0000      	beq 3a2 <_e_irq_mask+0x2a>
 3a4:	588e      	asr r2,r6,0x4
 3a6:	0500      	beq 3b0 <_e_irq_mask+0x38>
 3a8:	5402      	moveq r2,r5
 3aa:	0000      	beq 3aa <_e_irq_mask+0x32>
 3ac:	5b8e      	asr r2,r6,0x1c
 3ae:	0500      	beq 3b8 <_e_irq_mask+0x40>
 3b0:	5802      	moveq r2,r6
 3b2:	0000      	beq 3b2 <_e_irq_mask+0x3a>
 3b4:	038e      	asr r0,r0,0x1c
 3b6:	7fbc 0001 	strh r3,[r7,+0xf]
 3ba:	0205      	ldrb r0,[r0],r4
 3bc:	0066      	lsr r0,r0,0x3
 3be:	8e00      	beq 2da <_wand_isr+0x6>
 3c0:	0033      	sub r0,r0,0
 3c2:	0205      	ldrb r0,[r0],r4
 3c4:	006a      	asr r0,r0,r0
 3c6:	8e00      	beq 2e2 <_wand_isr+0xe>
 3c8:	0023      	mov r0,0x1
 3ca:	0205      	ldrb r0,[r0],r4
 3cc:	006e      	asr r0,r0,0x3
 3ce:	8e00      	beq 2ea <_wand_isr+0x16>
 3d0:	0033      	sub r0,r0,0
 3d2:	0205      	ldrb r0,[r0],r4
 3d4:	0072      	movgte r0,r0
 3d6:	8e00      	beq 2f2 <_wand_isr+0x1e>
 3d8:	bc03      	mov r5,0xe0
 3da:	017f 0500 	*unknown*
 3de:	7a02 0000 	*unknown*
 3e2:	268e      	asr r1,r1,0x14
 3e4:	0500      	beq 3ee <_e_irq_mask+0x76>
 3e6:	7e02 0000 	*unknown*
 3ea:	188e      	asr r0,r6,0x4
 3ec:	0500      	beq 3f6 <_e_reg_read+0x6>
 3ee:	8202 0000 	*unknown*
 3f2:	188e      	asr r0,r6,0x4
 3f4:	0500      	beq 3fe <_e_reg_read+0xe>
 3f6:	8602 0000 	*unknown*
 3fa:	1e8e      	asr r0,r7,0x14
 3fc:	0500      	beq 406 <_e_reg_read+0x16>
 3fe:	8e02 0000 	*unknown*
 402:	038e      	asr r0,r0,0x1c
 404:	0166      	lsr r0,r0,0xb
 406:	0500      	beq 410 <_e_reg_read+0x20>
 408:	9e02 0000 	*unknown*
 40c:	008e      	asr r0,r0,0x4
 40e:	0402      	moveq r0,r1
 410:	3801      	ldrb r1,[r6,r0]
 412:	0500      	beq 41c <_e_reg_read+0x2c>
 414:	a402      	moveq r5,r1
 416:	0000      	beq 416 <_e_reg_read+0x26>
 418:	008e      	asr r0,r0,0x4
 41a:	0402      	moveq r0,r1
 41c:	1000      	beq 43c <_e_reg_read+0x4c>
 41e:	0500      	beq 428 <_e_reg_read+0x38>
 420:	ac02      	moveq r5,r3
 422:	0000      	beq 422 <_e_reg_read+0x32>
 424:	1e8e      	asr r0,r7,0x14
 426:	0500      	beq 430 <_e_reg_read+0x40>
 428:	b002      	moveq r5,r4
 42a:	0000      	beq 42a <_e_reg_read+0x3a>
 42c:	1d8e      	asr r0,r7,0xc
 42e:	0500      	beq 438 <_e_reg_read+0x48>
 430:	b202 0000 	*unknown*
 434:	038e      	asr r0,r0,0x1c
 436:	0159 0500 	str r0,[r8,+r18]
 43a:	b802      	moveq r5,r6
 43c:	0000      	beq 43c <_e_reg_read+0x4c>
 43e:	3e8e      	asr r1,r7,0x14
 440:	0500      	beq 44a <_e_reg_read+0x5a>
 442:	bc02      	moveq r5,r7
 444:	0000      	beq 444 <_e_reg_read+0x54>
 446:	168e      	asr r0,r5,0x14
 448:	0500      	beq 452 <_e_reg_read+0x62>
 44a:	c002      	moveq r6,r0
 44c:	0000      	beq 44c <_e_reg_read+0x5c>
 44e:	188e      	asr r0,r6,0x4
 450:	0500      	beq 45a <_e_reg_read+0x6a>
 452:	c202 0000 	*unknown*
 456:	1a8e      	asr r0,r6,0x14
 458:	0500      	beq 462 <_e_reg_read+0x72>
 45a:	c602 0000 	*unknown*
 45e:	1a8e      	asr r0,r6,0x14
 460:	0500      	beq 46a <_e_reg_write+0x2>
 462:	ca02 0000 	*unknown*
 466:	1d8e      	asr r0,r7,0xc
 468:	0500      	beq 472 <_e_reg_write+0xa>
 46a:	ce02 0000 	*unknown*
 46e:	038e      	asr r0,r0,0x1c
 470:	016b 0500 	*unknown*
 474:	d202 0000 	*unknown*
 478:	2c8e      	asr r1,r3,0x4
 47a:	0500      	beq 484 <_e_reg_write+0x1c>
 47c:	d602 0000 	*unknown*
 480:	148e      	asr r0,r5,0x4
 482:	0500      	beq 48c <_e_reg_write+0x24>
 484:	da02 0000 	*unknown*
 488:	1a8e      	asr r0,r6,0x14
 48a:	0500      	beq 494 <_e_reg_write+0x2c>
 48c:	dc02      	moveq r6,r7
 48e:	0000      	beq 48e <_e_reg_write+0x26>
 490:	198e      	asr r0,r6,0xc
 492:	0500      	beq 49c <_e_reg_write+0x34>
 494:	e602 0000 	*unknown*
 498:	188e      	asr r0,r6,0x4
 49a:	0500      	beq 4a4 <_e_reg_write+0x3c>
 49c:	f002      	moveq r7,r4
 49e:	0000      	beq 49e <_e_reg_write+0x36>
 4a0:	1e8e      	asr r0,r7,0x14
 4a2:	0500      	beq 4ac <_e_reg_write+0x44>
 4a4:	f802      	moveq r7,r6
 4a6:	0000      	beq 4a6 <_e_reg_write+0x3e>
 4a8:	008e      	asr r0,r0,0x4
 4aa:	0402      	moveq r0,r1
 4ac:	0601      	ldrb r0,[r1,r4]
 4ae:	0001      	ldrb r0,[r0,r0]
 4b0:	0205      	ldrb r0,[r0],r4
 4b2:	0100      	beq 4b4 <_e_reg_write+0x4c>
 4b4:	8e00      	beq 3d0 <_e_irq_mask+0x58>
 4b6:	0200      	beq 4ba <_e_reg_write+0x52>
 4b8:	0004      	ldrb r0,[r0]
 4ba:	0306      	lsr r0,r0,0x18
 4bc:	015d 0500 	str r0,[r8],+r18
 4c0:	0802      	moveq r0,r2
 4c2:	0001      	ldrb r0,[r0,r0]
 4c4:	438e      	asr r2,r0,0x1c
 4c6:	0500      	beq 4d0 <_e_reg_write+0x68>
 4c8:	0e02 0001 	*unknown*
 4cc:	328e      	asr r1,r4,0x14
 4ce:	0500      	beq 4d8 <_e_reg_write+0x70>
 4d0:	3202 0001 	*unknown*
 4d4:	038e      	asr r0,r0,0x1c
 4d6:	0153 0500 	*unknown*
 4da:	3602 0001 	*unknown*
 4de:	038e      	asr r0,r0,0x1c
 4e0:	0174      	strd r0,[r0,0x2]
 4e2:	0500      	beq 4ec <_e_get_global_address>
 4e4:	3a02 0001 	*unknown*
 4e8:	278e      	asr r1,r1,0x1c
 4ea:	0500      	beq 4f4 <_e_get_global_address+0x8>
 4ec:	4202 0001 	*unknown*
 4f0:	2a8e      	asr r1,r2,0x14
 4f2:	0500      	beq 4fc <_e_get_global_address+0x10>
 4f4:	4802      	moveq r2,r2
 4f6:	0001      	ldrb r0,[r0,r0]
 4f8:	008e      	asr r0,r0,0x4
 4fa:	0402      	moveq r0,r1
 4fc:	0601      	ldrb r0,[r1,r4]
 4fe:	0001      	ldrb r0,[r0,r0]
 500:	0205      	ldrb r0,[r0],r4
 502:	014e      	asr r0,r0,0xa
 504:	8e00      	beq 420 <_e_reg_read+0x30>
 506:	0200      	beq 50a <_e_get_global_address+0x1e>
 508:	0004      	ldrb r0,[r0]
 50a:	1f06      	lsr r0,r7,0x18
 50c:	0500      	beq 516 <_e_get_global_address+0x2a>
 50e:	5002      	moveq r2,r4
 510:	0001      	ldrb r0,[r0,r0]
 512:	128e      	asr r0,r4,0x14
 514:	0500      	beq 51e <_e_get_global_address+0x32>
 516:	5402      	moveq r2,r5
 518:	0001      	ldrb r0,[r0,r0]
 51a:	1c8e      	asr r0,r7,0x4
 51c:	0500      	beq 526 <_e_get_global_address+0x3a>
 51e:	5802      	moveq r2,r6
 520:	0001      	ldrb r0,[r0,r0]
 522:	188e      	asr r0,r6,0x4
 524:	0500      	beq 52e <_e_get_global_address+0x42>
 526:	5c02      	moveq r2,r7
 528:	0001      	ldrb r0,[r0,r0]
 52a:	008e      	asr r0,r0,0x4
 52c:	0402      	moveq r0,r1
 52e:	0301      	ldrb r0,[r0,r6]
 530:	7fbf 0001 	*unknown*
 534:	0205      	ldrb r0,[r0],r4
 536:	0164      	ldrd r0,[r0,0x2]
 538:	8e00      	beq 454 <_e_reg_read+0x64>
 53a:	0200      	beq 53e <_e_get_global_address+0x52>
 53c:	0004      	ldrb r0,[r0]
 53e:	005c 0205 	str r0,[r0],+0x28
 542:	0168 8e00 	bgt ff1c0544 <__exit+0x711bff84>
 546:	0018 0205 	bne 40f46 <__stack_start_+0x38f56>
 54a:	016c 8e00 	ldrd r32,[r24],+0x2
 54e:	7203      	mov r3,0x90
 550:	0001      	ldrb r0,[r0,r0]
 552:	0205      	ldrb r0,[r0],r4
 554:	0170      	bgte 556 <_e_get_global_address+0x6a>
 556:	8e00      	beq 472 <_e_reg_write+0xa>
 558:	0100 	beq 55a <_e_get_global_address+0x6e>
 55a:	Address 0x0000055a is out of bounds.


Disassembly of section .debug_frame:

00000000 <.debug_frame>:
   0:	000c 0000 	ldrb r0,[r0,+0x0]
   4:	ffff ffff 	*unknown*
   8:	0001      	ldrb r0,[r0,r0]
   a:	7c01      	ldrb r3,[r7,r0]
   c:	0c0e      	asr r0,r3,0x0
   e:	080d 0014 	*unknown*
	...
  1a:	8e00      	beq ffffff36 <__exit+0x71fff976>
  1c:	0036      	lsl r0,r0,0x1
  1e:	0000      	beq 1e <__CORE_COL_+0x16>
  20:	0e44      	ldr r0,[r3,0x4]
  22:	8410      	bne ffffff2a <__exit+0x71fff96a>
  24:	4e02 018e 	*unknown*
  28:	000c 0000 	ldrb r0,[r0,+0x0]
  2c:	ffff ffff 	*unknown*
  30:	0001      	ldrb r0,[r0,r0]
  32:	7c01      	ldrb r3,[r7,r0]
  34:	0c0e      	asr r0,r3,0x0
  36:	080d 002c 	*unknown*
  3a:	0000      	beq 3a <_e_group_config+0x12>
  3c:	0028 0000 	bgtu 3c <_e_group_config+0x14>
  40:	003c 8e00 	strh r32,[r24],+0x0
  44:	0134      	strh r0,[r0,0x2]
  46:	0000      	beq 46 <_e_group_config+0x1e>
  48:	0e48 8440 	blteu ff088064 <__exit+0x71087aa4>
  4c:	8502      	movts status,r4
  4e:	4c01      	ldrb r2,[r3,r0]
  50:	088a      	eor r0,r2,r1
  52:	078b 0ca0 	*unknown*
  56:	0ba1      	ldrh r0,[r2,r7]
  58:	8854      	str r4,[r2]
  5a:	8906      	lsr r4,r2,0x8
  5c:	8605      	ldrb r4,[r1],r4
  5e:	8704      	ldrb r4,[r1,0x6]
  60:	5603      	mov r2,0xb0
  62:	0a8e      	asr r0,r2,0x14
  64:	098f 0da2 	*unknown*

Disassembly of section .debug_str:

00000000 <.debug_str>:
   0:	645f 6f73 	*unknown*
   4:	685f 6e61 	*unknown*
   8:	6c64      	ldrd r3,[r3]
   a:	0065      	ldrd r0,[r0],r0
   c:	735f 7a69 	*unknown*
  10:	0065      	ldrd r0,[r0],r0
  12:	725f 6e61 	*unknown*
  16:	3464      	ldrd r1,[r5]
  18:	0038 655f 	bgteu cabe18 <__PROG_SIZE_FOR_CORE_+0xbabe18>
  1c:	656d 6772 	*unknown*
  20:	6e65      	ldrd r3,[r3],r4
  22:	7963      	mov r3,0xcb
  24:	5f00      	beq e2 <_main+0x62>
  26:	6377      	fabs rd,rn
  28:	7472      	movgte r3,r5
  2a:	6d6f 5f62 	*unknown*
  2e:	7473 7461 	*unknown*
  32:	0065      	ldrd r0,[r0],r0
  34:	775f 7363 	*unknown*
  38:	7472      	movgte r3,r5
  3a:	6d6f 7362 	*unknown*
  3e:	735f 6174 	*unknown*
  42:	6574      	strd r3,[r1,0x2]
  44:	6c00      	beq 11c <_main+0x9c>
  46:	6e6f 2067 	*unknown*
  4a:	6f6c 676e 	ldrd r27,[fp],-0x376
  4e:	7520      	bgtu 138 <_main+0xb8>
  50:	736e      	asr r3,r4,0x1b
  52:	6769 656e 	*unknown*
  56:	2064      	ldrd r1,[r0]
  58:	6e69 0074 	*unknown*
  5c:	6c5f 6662 	*unknown*
  60:	6973 657a 	*unknown*
  64:	5f00      	beq 122 <_main+0xa2>
  66:	626d 7472 	*unknown*
  6a:	776f 5f63 	*unknown*
  6e:	7473 7461 	*unknown*
  72:	0065      	ldrd r0,[r0],r0
  74:	775f 7463 	*unknown*
  78:	6d6f 5f62 	*unknown*
  7c:	7473 7461 	*unknown*
  80:	0065      	ldrd r0,[r0],r0
  82:	5f5f 6d74 	*unknown*
  86:	735f 6365 	*unknown*
  8a:	6c00      	beq 162 <_main+0xe2>
  8c:	6e6f 2067 	*unknown*
  90:	6f6c 676e 	ldrd r27,[fp],-0x376
  94:	6920      	bgtu 166 <_main+0xe6>
  96:	746e      	asr r3,r5,0x3
  98:	5f00      	beq 156 <_main+0xd6>
  9a:	6275      	strd r3,[r0],r4
  9c:	6675      	strd r3,[r1],r4
  9e:	5f00      	beq 15c <_main+0xdc>
  a0:	6162 6573 	*unknown*
  a4:	5f00      	beq 162 <_main+0xe2>
  a6:	745f 5f6d 	*unknown*
  aa:	6f68 7275 	bgt e4eb88 <__PROG_SIZE_FOR_CORE_+0xd4eb88>
  ae:	5f00      	beq 16c <_main+0xec>
  b0:	735f 0066 	*unknown*
  b4:	6f5f 5f6e 	*unknown*
  b8:	7865      	ldrd r3,[r6],r0
  ba:	7469 615f 	*unknown*
  be:	6772 0073 	*unknown*
  c2:	635f 6f6f 	*unknown*
  c6:	696b 0065 	*unknown*
  ca:	5f5f 6773 	*unknown*
  ce:	756c 0065 	ldrd r3,[r5,+0x32a]
  d2:	665f 616c 	*unknown*
  d6:	7367      	fix r3,r4
  d8:	5f00      	beq 196 <_epiphany_start+0x16>
  da:	7369 635f 	*unknown*
  de:	6178 5f00 	bgte be01a0 <__PROG_SIZE_FOR_CORE_+0xae01a0>
  e2:	7473 6964 	*unknown*
  e6:	006e      	asr r0,r0,0x3
  e8:	625f 6b6c 	*unknown*
  ec:	6973 657a 	*unknown*
  f0:	5f00      	beq 1ae <_epiphany_start+0x2e>
  f2:	7663      	mov r3,0xb3
  f4:	6274      	strd r3,[r0,0x4]
  f6:	6675      	strd r3,[r1],r4
  f8:	5f00      	beq 1b6 <_epiphany_start+0x36>
  fa:	666f 7366 	*unknown*
  fe:	7465      	ldrd r3,[r5],r0
 100:	5f00      	beq 1be <_epiphany_start+0x3e>
 102:	626d 7273 	*unknown*
 106:	6f74      	strd r3,[r3,0x6]
 108:	6377      	fabs rd,rn
 10a:	5f73 7473 	*unknown*
 10e:	7461      	ldrd r3,[r5,r0]
 110:	0065      	ldrd r0,[r0],r0
 112:	6d5f 7262 	*unknown*
 116:	656c 5f6e 	ldrd r19,[r57],-0x372
 11a:	7473 7461 	*unknown*
 11e:	0065      	ldrd r0,[r0],r0
 120:	665f 616e 	*unknown*
 124:	6772 0073 	*unknown*
 128:	665f 736e 	*unknown*
 12c:	5f00      	beq 1ea <RDS+0x2>
 12e:	6973 6e67 	*unknown*
 132:	5f00      	beq 1f0 <RDS+0x8>
 134:	6c66      	lsr r3,r3,0x3
 136:	636f 5f6b 	*unknown*
 13a:	0074      	strd r0,[r0]
 13c:	735f 6474 	*unknown*
 140:	7265      	ldrd r3,[r4],r4
 142:	0072      	movgte r0,r0
 144:	425f 6769 	*unknown*
 148:	6e69 0074 	*unknown*
 14c:	725f 6165 	*unknown*
 150:	0064      	ldrd r0,[r0]
 152:	725f 7365 	*unknown*
 156:	6c75      	strd r3,[r3],r0
 158:	5f74      	strd r2,[r7,0x6]
 15a:	006b 5f5f 	*unknown*
 15e:	6d74      	strd r3,[r3,0x2]
 160:	2f00      	beq 1be <_epiphany_start+0x3e>
 162:	6f68 656d 	bgt cadc40 <__PROG_SIZE_FOR_CORE_+0xbadc40>
 166:	6c2f 6e69 	*unknown*
 16a:	7261      	ldrd r3,[r4,r4]
 16c:	2f6f 6f77 	*unknown*
 170:	6b72 652f 	*unknown*
 174:	6970      	bgte 246 <_register_tm_clones+0xa>
 176:	6870      	bgte 246 <_register_tm_clones+0xa>
 178:	6e61      	ldrd r3,[r3,r4]
 17a:	2f79 6473 	*unknown*
 17e:	2f6b 2e2e 	*unknown*
 182:	732f 6372 	*unknown*
 186:	2f77      	fabs rd,rn
 188:	656e      	asr r3,r1,0xb
 18a:	6c77      	fabs rd,rn
 18c:	6269 6c2f 	*unknown*
 190:	6269 2f63 	*unknown*
 194:	7473 6c64 	*unknown*
 198:	6269 652f 	*unknown*
 19c:	6978 2e74 	bgte 5cea6e <__PROG_SIZE_FOR_CORE_+0x4cea6e>
 1a0:	0063      	mov r0,0x3
 1a2:	5f5f 6377 	*unknown*
 1a6:	6268 5f00 	bgt be026a <__PROG_SIZE_FOR_CORE_+0xae026a>
 1aa:	7473 6f64 	*unknown*
 1ae:	7475      	strd r3,[r5],r0
 1b0:	5f00      	beq 26e <___do_global_dtors_aux+0x2>
 1b2:	7663      	mov r3,0xb3
 1b4:	6c74      	strd r3,[r3]
 1b6:	6e65      	ldrd r3,[r3],r4
 1b8:	5f00      	beq 276 <___do_global_dtors_aux+0xa>
 1ba:	6966      	lsr r3,r2,0xb
 1bc:	656c 5f00 	ldrd r19,[r57],-0x2
 1c0:	696e      	asr r3,r2,0xb
 1c2:	626f 0073 	*unknown*
 1c6:	6873 726f 	*unknown*
 1ca:	2074      	strd r1,[r0]
 1cc:	6e75      	strd r3,[r3],r4
 1ce:	6973 6e67 	*unknown*
 1d2:	6465      	ldrd r3,[r1],r0
 1d4:	6920      	bgtu 2a6 <_frame_dummy+0x6>
 1d6:	746e      	asr r3,r5,0x3
 1d8:	5f00      	beq 296 <___do_global_dtors_aux+0x2a>
 1da:	7461      	ldrd r3,[r5,r0]
 1dc:	7865      	ldrd r3,[r6],r0
 1de:	7469 0030 	*unknown*
 1e2:	735f 6769 	*unknown*
 1e6:	616e      	asr r3,r0,0xb
 1e8:	5f6c 7562 	ldrd r26,[r47,-0x316]
 1ec:	0066      	lsr r0,r0,0x3
 1ee:	615f 6373 	*unknown*
 1f2:	6974      	strd r3,[r2,0x2]
 1f4:	656d 625f 	*unknown*
 1f8:	6675      	strd r3,[r1],r4
 1fa:	5f00      	beq 2b8 <_frame_dummy+0x18>
 1fc:	6572 7573 	*unknown*
 200:	746c 5f00 	ldrd r19,[r61],-0x0
 204:	775f 6863 	*unknown*
 208:	7700      	beq 2f6 <_wand_isr+0x22>
 20a:	6e69 5f74 	*unknown*
 20e:	0074      	strd r0,[r0]
 210:	6c5f 636f 	*unknown*
 214:	006b 665f 	*unknown*
 218:	616c 7367 	ldrd r27,[r32],-0x33a
 21c:	0032      	movgteu r0,r0
 21e:	775f 6972 	*unknown*
 222:	6574      	strd r3,[r1,0x2]
 224:	5f00      	beq 2e2 <_wand_isr+0xe>
 226:	745f 5f6d 	*unknown*
 22a:	6579 7261 	*unknown*
 22e:	7300      	beq 314 <_e_wait+0x1c>
 230:	7a69 7465 	*unknown*
 234:	7079 0065 	*unknown*
 238:	6e5f 7865 	*unknown*
 23c:	6674      	strd r3,[r1,0x4]
 23e:	5f00      	beq 2fc <_e_wait+0x4>
 240:	745f 5f6d 	*unknown*
 244:	6f6d 006e 	*unknown*
 248:	615f 6574 	*unknown*
 24c:	6978 0074 	bgte eb1e <__stack_start_+0x6b2e>
 250:	5f5f 6473 	*unknown*
 254:	6469 6e69 	*unknown*
 258:	7469 5f00 	ldrd r19,[r61,+r48]
 25c:	6167      	fix r3,r0
 25e:	6d6d 5f61 	*unknown*
 262:	6973 6e67 	*unknown*
 266:	6167      	fix r3,r0
 268:	006d 665f 	*unknown*
 26c:	6572 6c65 	*unknown*
 270:	7369 0074 	*unknown*
 274:	4c5f 434f 	*unknown*
 278:	5f4b 4552 	mov r18,0x55fa
 27c:	5543      	mov r2,0xaa
 27e:	5352 5649 	*unknown*
 282:	5f45      	ldr r2,[r7],r6
 284:	0054      	str r0,[r0]
 286:	6e75      	strd r3,[r3],r4
 288:	6973 6e67 	*unknown*
 28c:	6465      	ldrd r3,[r1],r0
 28e:	6320      	bgtu 354 <_e_irq_attach+0x4>
 290:	6168 0072 	bgt e752 <__stack_start_+0x6762>
 294:	6e5f 7765 	*unknown*
 298:	5f00      	beq 356 <_e_irq_attach+0x6>
 29a:	5f68 7265 	bgt e4cd58 <__PROG_SIZE_FOR_CORE_+0xd4cd58>
 29e:	6e72 006f 	*unknown*
 2a2:	6873 726f 	*unknown*
 2a6:	2074      	strd r1,[r0]
 2a8:	6e69 0074 	*unknown*
 2ac:	5f5f 6d74 	*unknown*
 2b0:	795f 6164 	*unknown*
 2b4:	0079 5f5f 	*unknown*
 2b8:	6273 6675 	*unknown*
 2bc:	5f00      	beq 37a <_e_irq_mask+0x2>
 2be:	6f69 7362 	*unknown*
 2c2:	5f00      	beq 380 <_e_irq_mask+0x8>
 2c4:	465f 4c49 	*unknown*
 2c8:	0045      	ldr r0,[r0],r0
 2ca:	6d5f 7362 	*unknown*
 2ce:	6174      	strd r3,[r0,0x2]
 2d0:	6574      	strd r3,[r1,0x2]
 2d2:	745f 5f00 	*unknown*
 2d6:	735f 4946 	*unknown*
 2da:	454c 5f00 	ldr r18,[r57],-0x2
 2de:	626d 7473 	*unknown*
 2e2:	7461      	ldrd r3,[r5,r0]
 2e4:	0065      	ldrd r0,[r0],r0
 2e6:	725f 6e61 	*unknown*
 2ea:	5f64      	ldrd r2,[r7,0x6]
 2ec:	656e      	asr r3,r1,0xb
 2ee:	7478 5f00 	bgte be03d6 <__PROG_SIZE_FOR_CORE_+0xae03d6>
 2f2:	626d 656c 	*unknown*
 2f6:	5f6e      	asr r2,r7,0x1b
 2f8:	7473 7461 	*unknown*
 2fc:	0065      	ldrd r0,[r0],r0
 2fe:	695f 636e 	*unknown*
 302:	5f00      	beq 3c0 <_e_irq_mask+0x48>
 304:	6e69 0064 	*unknown*
 308:	635f 7275 	*unknown*
 30c:	6572 746e 	*unknown*
 310:	6c5f 636f 	*unknown*
 314:	6c61      	ldrd r3,[r3,r0]
 316:	0065      	ldrd r0,[r0],r0
 318:	5f5f 6c63 	*unknown*
 31c:	6165      	ldrd r3,[r0],r2
 31e:	756e      	asr r3,r5,0xb
 320:	0070      	bgte 320 <_e_wait+0x28>
 322:	6d5f 7861 	*unknown*
 326:	6477      	fabs rd,rn
 328:	0073 4e47 	*unknown*
 32c:	2055      	str r1,[r0],r0
 32e:	2043      	mov r1,0x2
 330:	2e34      	strh r1,[r3,0x4]
 332:	2e37      	fmadd r1,r3,r4
 334:	2030      	bgteu 374 <_e_irq_global_mask+0x10>
 336:	3032      	movgteu r1,r4
 338:	3231      	strh r1,[r4,r4]
 33a:	3130      	bgteu 39c <_e_irq_mask+0x24>
 33c:	3032      	movgteu r1,r4
 33e:	2820      	bgtu 38e <_e_irq_mask+0x16>
 340:	7865      	ldrd r3,[r6],r0
 342:	6570      	bgte 40c <_e_reg_read+0x1c>
 344:	6972 656d 	*unknown*
 348:	746e      	asr r3,r5,0x3
 34a:	6c61      	ldrd r3,[r3,r0]
 34c:	0029 735f 	*unknown*
 350:	6565      	ldrd r3,[r1],r2
 352:	0064      	ldrd r0,[r0]
 354:	5f5f 6f63 	*unknown*
 358:	6e75      	strd r3,[r3],r4
 35a:	0074      	strd r0,[r0]
 35c:	5f5f 6176 	*unknown*
 360:	756c 0065 	ldrd r3,[r5,+0x32a]
 364:	735f 6565 	*unknown*
 368:	006b 665f 	*unknown*
 36c:	6f70      	bgte 44a <_e_reg_read+0x5a>
 36e:	5f73 0074 	*unknown*
 372:	5f5f 6d74 	*unknown*
 376:	6d5f 6e69 	*unknown*
 37a:	5f00      	beq 438 <_e_reg_read+0x48>
 37c:	756d 746c 	*unknown*
 380:	5f00      	beq 43e <_e_reg_read+0x4e>
 382:	7473 7472 	*unknown*
 386:	6b6f 6c5f 	*unknown*
 38a:	7361      	ldrd r3,[r4,r6]
 38c:	0074      	strd r0,[r0]
 38e:	665f 746e 	*unknown*
 392:	7079 7365 	*unknown*
 396:	5f00      	beq 454 <_e_reg_read+0x64>
 398:	6461      	ldrd r3,[r1,r0]
 39a:	0064      	ldrd r0,[r0]
 39c:	5f5f 4c55 	*unknown*
 3a0:	6e6f 0067 	*unknown*
 3a4:	675f 7465 	*unknown*
 3a8:	6164      	ldrd r3,[r0,0x2]
 3aa:	6574      	strd r3,[r1,0x2]
 3ac:	655f 7272 	*unknown*
 3b0:	5f00      	beq 46e <_e_reg_write+0x6>
 3b2:	6c67      	fix r3,r3
 3b4:	626f 6c61 	*unknown*
 3b8:	695f 706d 	*unknown*
 3bc:	7275      	strd r3,[r4],r4
 3be:	5f65      	ldrd r2,[r7],r6
 3c0:	7470      	bgte 4a8 <_e_reg_write+0x40>
 3c2:	0072      	movgte r0,r0
 3c4:	635f 7275 	*unknown*
 3c8:	6572 746e 	*unknown*
 3cc:	635f 7461 	*unknown*
 3d0:	6765      	ldrd r3,[r1],r6
 3d2:	726f 0079 	*unknown*
 3d6:	6f63      	mov r3,0x7b
 3d8:	6564      	ldrd r3,[r1,0x2]
 3da:	5f00      	beq 498 <_e_reg_write+0x30>
 3dc:	6e75      	strd r3,[r3],r4
 3de:	7375      	strd r3,[r4],r6
 3e0:	6465      	ldrd r3,[r1],r0
 3e2:	725f 6e61 	*unknown*
 3e6:	0064      	ldrd r0,[r0]
 3e8:	775f 7364 	*unknown*
 3ec:	5f00      	beq 4aa <_e_reg_write+0x42>
 3ee:	745f 5f6d 	*unknown*
 3f2:	6477      	fabs rd,rn
 3f4:	7961      	ldrd r3,[r6,r2]
 3f6:	5f00      	beq 4b4 <_e_reg_write+0x4c>
 3f8:	6c67      	fix r3,r3
 3fa:	6575      	strd r3,[r1],r2
 3fc:	5f00      	beq 4ba <_e_reg_write+0x52>
 3fe:	6d6e      	asr r3,r3,0xb
 400:	6c61      	ldrd r3,[r3,r0]
 402:	6f6c 0063 	ldrd r3,[r3,+0x31e]
 406:	6c5f 3436 	*unknown*
 40a:	5f61      	ldrd r2,[r7,r6]
 40c:	7562 0066 	*unknown*
 410:	735f 6769 	*unknown*
 414:	665f 6e75 	*unknown*
 418:	0063      	mov r0,0x3
 41a:	725f 6565 	*unknown*
 41e:	746e      	asr r3,r5,0x3
 420:	5f00      	beq 4de <_e_reg_write+0x76>
 422:	626e      	asr r3,r0,0x13
 424:	6675      	strd r3,[r1],r4
 426:	5f00      	beq 4e4 <_e_reg_write+0x7c>
 428:	6e75      	strd r3,[r3],r4
 42a:	7375      	strd r3,[r4],r6
 42c:	6465      	ldrd r3,[r1],r0
 42e:	5f00      	beq 4ec <_e_get_global_address>
 430:	745f 5f6d 	*unknown*
 434:	7369 7364 	*unknown*
 438:	0074      	strd r0,[r0]
 43a:	6c5f 636f 	*unknown*
 43e:	6c61      	ldrd r3,[r3,r0]
 440:	6974      	strd r3,[r2,0x2]
 442:	656d 625f 	*unknown*
 446:	6675      	strd r3,[r1],r4
 448:	5f00      	beq 506 <_e_get_global_address+0x1a>
 44a:	6c63      	mov r3,0x63
 44c:	736f 0065 	*unknown*
 450:	725f 3834 	*unknown*
 454:	5f00      	beq 512 <_e_get_global_address+0x26>
 456:	626d 6f74 	*unknown*
 45a:	6377      	fabs rd,rn
 45c:	735f 6174 	*unknown*
 460:	6574      	strd r3,[r1,0x2]
 462:	5f00      	beq 520 <_e_get_global_address+0x34>
 464:	3570      	bgte 4ce <_e_reg_write+0x66>
 466:	0073 5f5f 	*unknown*
 46a:	6d74      	strd r3,[r3,0x2]
 46c:	6d5f 6164 	*unknown*
 470:	0079 6d69 	*unknown*
 474:	7570      	bgte 55e <_e_get_global_address+0x72>
 476:	6572 645f 	*unknown*
 47a:	7461      	ldrd r3,[r5,r0]
 47c:	0061      	ldrd r0,[r0,r0]
 47e:	682f 6d6f 	*unknown*
 482:	2f65      	ldrd r1,[r3],r6
 484:	696c 616e 	ldrd r27,[r2,-0x372]
 488:	6f72 772f 	*unknown*
 48c:	726f 2f6b 	*unknown*
 490:	7065      	ldrd r3,[r4],r0
 492:	7069 6168 	*unknown*
 496:	796e      	asr r3,r6,0xb
 498:	732f 6b64 	*unknown*
 49c:	2e2f 2f2e 	*unknown*
 4a0:	7273 7763 	*unknown*
 4a4:	6e2f 7765 	*unknown*
 4a8:	696c 2f62 	ldrd fp,[r26],-0x312
 4ac:	696c 6362 	ldrd r27,[r2],-0x312
 4b0:	722f 6565 	*unknown*
 4b4:	746e      	asr r3,r5,0x3
 4b6:	692f 706d 	*unknown*
 4ba:	7275      	strd r3,[r4],r4
 4bc:	2e65      	ldrd r1,[r3],r4
 4be:	0063      	mov r0,0x3
 4c0:	5f5f 6163 	*unknown*
 4c4:	6c6c 655f 	ldrd r27,[fp,-0x2f8]
 4c8:	6978 7074 	bgte e0ed9a <__PROG_SIZE_FOR_CORE_+0xd0ed9a>
 4cc:	6f72 7363 	*unknown*
 4d0:	6c00      	beq 5a8 <_ctimer0_start>
 4d2:	7361      	ldrd r3,[r4,r6]
 4d4:	7074      	strd r3,[r4]
 4d6:	2f00      	beq 534 <_e_get_global_address+0x48>
 4d8:	6f68 656d 	bgt cadfb6 <__PROG_SIZE_FOR_CORE_+0xbadfb6>
 4dc:	6c2f 6e69 	*unknown*
 4e0:	7261      	ldrd r3,[r4,r4]
 4e2:	2f6f 6f77 	*unknown*
 4e6:	6b72 652f 	*unknown*
 4ea:	6970      	bgte 5bc <_ctimer0_start+0x14>
 4ec:	6870      	bgte 5bc <_ctimer0_start+0x14>
 4ee:	6e61      	ldrd r3,[r3,r4]
 4f0:	2f79 6473 	*unknown*
 4f4:	2f6b 2e2e 	*unknown*
 4f8:	732f 6372 	*unknown*
 4fc:	2f77      	fabs rd,rn
 4fe:	656e      	asr r3,r1,0xb
 500:	6c77      	fabs rd,rn
 502:	6269 6c2f 	*unknown*
 506:	6269 2f63 	*unknown*
 50a:	7473 6c64 	*unknown*
 50e:	6269 5f2f 	*unknown*
 512:	635f 6c61 	*unknown*
 516:	5f6c 7461 	ldrd r26,[r47,+0x30e]
 51a:	7865      	ldrd r3,[r6],r0
 51c:	7469 632e 	*unknown*
 520:	7200      	beq 604 <_e_ctimer_stop+0x24>
 522:	7365      	ldrd r3,[r4],r6
 524:	6174      	strd r3,[r0,0x2]
 526:	7472 	movgte r3,r5
	...

Disassembly of section .debug_loc:

00000000 <.debug_loc>:
   0:	0000      	beq 0 <__CORE_NUM_>
   2:	0000      	beq 2 <__CORE_NUM_+0x2>
   4:	0004      	ldrb r0,[r0]
   6:	0000      	beq 6 <__NUM_COLS_IN_CHIP_+0x2>
   8:	0002      	moveq r0,r0
   a:	087d 0004 	*unknown*
   e:	0000      	beq e <__CORE_COL_+0x6>
  10:	0036      	lsl r0,r0,0x1
  12:	0000      	beq 12 <__CORE_COL_+0xa>
  14:	0002      	moveq r0,r0
  16:	107d 0000 	strd r0,[r4],+r0
	...
  22:	0000      	beq 22 <__CORE_ROW_+0x2>
  24:	0015      	strb r0,[r0],r0
  26:	0000      	beq 26 <__CORE_ROW_+0x6>
  28:	0001      	ldrb r0,[r0,r0]
  2a:	1550      	bltu 54 <_e_emem_config+0x4>
  2c:	0000      	beq 2c <_e_group_config+0x4>
  2e:	3600      	beq 9a <_main+0x1a>
  30:	0000      	beq 30 <_e_group_config+0x8>
  32:	0100      	beq 34 <_e_group_config+0xc>
  34:	5400      	beq dc <_main+0x5c>
	...
  42:	0008 0000 	beq 42 <_e_group_config+0x1a>
  46:	0002      	moveq r0,r0
  48:	087d 0008 	*unknown*
  4c:	0000      	beq 4c <_e_group_config+0x24>
  4e:	0134      	strh r0,[r0,0x2]
  50:	0000      	beq 50 <_e_emem_config>
  52:	0003      	mov r0,0x0
  54:	c07d 0000 	strd r6,[r0],+r0
	...
  60:	0000      	beq 60 <.normal_start+0x8>
  62:	3e00      	beq de <_main+0x5e>
  64:	0000      	beq 64 <init>
  66:	0100      	beq 68 <init+0x4>
  68:	5000      	beq 108 <_main+0x88>
  6a:	003e 0000 	*unknown*
  6e:	0134      	strh r0,[r0,0x2]
  70:	0000      	beq 70 <init+0xc>
  72:	0001      	ldrb r0,[r0,r0]
  74:	005b 0000 	*unknown*
	...
  80:	3e00      	beq fc <_main+0x7c>
  82:	0000      	beq 82 <_main+0x2>
  84:	0100      	beq 86 <_main+0x6>
  86:	5100      	beq 128 <_main+0xa8>
  88:	003e 0000 	*unknown*
  8c:	00d6      	lsl r0,r0,0x6
  8e:	0000      	beq 8e <_main+0xe>
  90:	0001      	ldrb r0,[r0,r0]
  92:	d656      	lsl r6,r5,0x12
  94:	0000      	beq 94 <_main+0x14>
  96:	f600      	beq 82 <_main+0x2>
  98:	0000      	beq 98 <_main+0x18>
  9a:	0400      	beq a2 <_main+0x22>
  9c:	f300      	beq 82 <_main+0x2>
  9e:	5101      	ldrb r2,[r4,r2]
  a0:	f69f 0000 	*unknown*
  a4:	3400      	beq 10c <_main+0x8c>
  a6:	0001      	ldrb r0,[r0,r0]
  a8:	0100      	beq aa <_main+0x2a>
  aa:	5600      	beq 156 <_main+0xd6>
	...
  b4:	0042      	movlteu r0,r0
  b6:	0000      	beq b6 <_main+0x36>
  b8:	012c 0000 	ldrh r0,[r0,+0x2]
  bc:	0001      	ldrb r0,[r0,r0]
  be:	2c57      	float r1,r3
  c0:	0001      	ldrb r0,[r0,r0]
  c2:	3000      	beq 122 <_main+0xa2>
  c4:	0001      	ldrb r0,[r0,r0]
  c6:	0100      	beq c8 <_main+0x48>
  c8:	5000      	beq 168 <_main+0xe8>
  ca:	0130      	bgteu cc <_main+0x4c>
  cc:	0000      	beq cc <_main+0x4c>
  ce:	0134      	strh r0,[r0,0x2]
  d0:	0000      	beq d0 <_main+0x50>
  d2:	0001      	ldrb r0,[r0,r0]
  d4:	0057      	float r0,r0
  d6:	0000      	beq d6 <_main+0x56>
  d8:	0000      	beq d8 <_main+0x58>
  da:	0000      	beq da <_main+0x5a>
  dc:	4600      	beq 168 <_main+0xe8>
  de:	0000      	beq de <_main+0x5e>
  e0:	ea00      	beq b4 <_main+0x34>
  e2:	0000      	beq e2 <_main+0x62>
  e4:	0200      	beq e8 <_main+0x68>
  e6:	9000      	beq 6 <__NUM_COLS_IN_CHIP_+0x2>
  e8:	f622 0000 	*unknown*
  ec:	3400      	beq 154 <_main+0xd4>
  ee:	0001      	ldrb r0,[r0,r0]
  f0:	0200      	beq f4 <_main+0x74>
  f2:	9000      	beq 12 <__CORE_COL_+0xa>
  f4:	0022      	movgtu r0,r0
  f6:	0000      	beq f6 <_main+0x76>
  f8:	0000      	beq f8 <_main+0x78>
  fa:	0000      	beq fa <_main+0x7a>
  fc:	4a00      	beq 190 <_epiphany_start+0x10>
  fe:	0000      	beq fe <_main+0x7e>
 100:	5a00      	beq 1b4 <_epiphany_start+0x34>
 102:	0000      	beq 102 <_main+0x82>
 104:	0400      	beq 10c <_main+0x8c>
 106:	7700      	beq 1f4 <RDS+0xc>
 108:	0188 5a9f 	blt b53f0a <__PROG_SIZE_FOR_CORE_+0xa53f0a>
 10c:	0000      	beq 10c <_main+0x8c>
 10e:	cc00      	beq a6 <_main+0x26>
 110:	0000      	beq 110 <_main+0x90>
 112:	0100      	beq 114 <_main+0x94>
 114:	5f00      	beq 1d2 <_epiphany_start+0x52>
 116:	00cc 0000 	ldr r0,[r0,+0x1]
 11a:	00d2      	movblte r0,r0
 11c:	0000      	beq 11c <_main+0x9c>
 11e:	0004      	ldrb r0,[r0]
 120:	8877      	fabs rd,rn
 122:	9f01      	ldrb r4,[r7,r6]
 124:	00f6      	lsl r0,r0,0x7
 126:	0000      	beq 126 <_main+0xa6>
 128:	0106      	lsr r0,r0,0x8
 12a:	0000      	beq 12a <_main+0xaa>
 12c:	0001      	ldrb r0,[r0,r0]
 12e:	065f 0001 	*unknown*
 132:	2000      	beq 172 <_main+0xf2>
 134:	0001      	ldrb r0,[r0,r0]
 136:	0400      	beq 13e <_main+0xbe>
 138:	7700      	beq 226 <_deregister_tm_clones+0x16>
 13a:	0188 269f 	blt 4d3f3c <__PROG_SIZE_FOR_CORE_+0x3d3f3c>
 13e:	0001      	ldrb r0,[r0,r0]
 140:	2e00      	beq 19c <_epiphany_start+0x1c>
 142:	0001      	ldrb r0,[r0,r0]
 144:	0400      	beq 14c <_main+0xcc>
 146:	7700      	beq 234 <_deregister_tm_clones+0x24>
 148:	0188 2e9f 	blt 5d3f4a <__PROG_SIZE_FOR_CORE_+0x4d3f4a>
 14c:	0001      	ldrb r0,[r0,r0]
 14e:	3000      	beq 1ae <_epiphany_start+0x2e>
 150:	0001      	ldrb r0,[r0,r0]
 152:	0500      	beq 15c <_main+0xdc>
 154:	9200      	beq 78 <init+0x14>
 156:	8822      	movgtu r4,r2
 158:	9f01      	ldrb r4,[r7,r6]
 15a:	0130      	bgteu 15c <_main+0xdc>
 15c:	0000      	beq 15c <_main+0xdc>
 15e:	0134      	strh r0,[r0,0x2]
 160:	0000      	beq 160 <_main+0xe0>
 162:	0004      	ldrb r0,[r0]
 164:	8877      	fabs rd,rn
 166:	9f01      	ldrb r4,[r7,r6]
	...
 170:	004e      	asr r0,r0,0x2
 172:	0000      	beq 172 <_main+0xf2>
 174:	00d2      	movblte r0,r0
 176:	0000      	beq 176 <_main+0xf6>
 178:	0001      	ldrb r0,[r0,r0]
 17a:	f654      	str r7,[r5,0x4]
 17c:	0000      	beq 17c <_main+0xfc>
 17e:	3400      	beq 1e6 <_epiphany_start+0x66>
 180:	0001      	ldrb r0,[r0,r0]
 182:	0100      	beq 184 <_epiphany_start+0x4>
 184:	5400      	beq 22c <_deregister_tm_clones+0x1c>
	...
 18e:	0062      	movgt r0,r0
 190:	0000      	beq 190 <_epiphany_start+0x10>
 192:	006a      	asr r0,r0,r0
 194:	0000      	beq 194 <_epiphany_start+0x14>
 196:	0005      	ldrb r0,[r0],r0
 198:	7431      	strh r3,[r5,r0]
 19a:	2400      	beq 1e2 <_epiphany_start+0x62>
 19c:	6a9f 0000 	*unknown*
 1a0:	7000      	beq 280 <___do_global_dtors_aux+0x14>
 1a2:	0000      	beq 1a2 <_epiphany_start+0x22>
 1a4:	0500      	beq 1ae <_epiphany_start+0x2e>
 1a6:	3100      	beq 208 <RDS+0x20>
 1a8:	0174      	strd r0,[r0,0x2]
 1aa:	9f24      	ldrh r4,[r7,0x6]
 1ac:	0070      	bgte 1ac <_epiphany_start+0x2c>
 1ae:	0000      	beq 1ae <_epiphany_start+0x2e>
 1b0:	00c6      	lsr r0,r0,0x6
 1b2:	0000      	beq 1b2 <_epiphany_start+0x32>
 1b4:	0005      	ldrb r0,[r0],r0
 1b6:	7431      	strh r3,[r5,r0]
 1b8:	2400      	beq 200 <RDS+0x18>
 1ba:	c69f 0000 	*unknown*
 1be:	cc00      	beq 156 <_main+0xd6>
 1c0:	0000      	beq 1c0 <_epiphany_start+0x40>
 1c2:	0500      	beq 1cc <_epiphany_start+0x4c>
 1c4:	3100      	beq 226 <_deregister_tm_clones+0x16>
 1c6:	0174      	strd r0,[r0,0x2]
 1c8:	9f24      	ldrh r4,[r7,0x6]
 1ca:	00f6      	lsl r0,r0,0x7
 1cc:	0000      	beq 1cc <_epiphany_start+0x4c>
 1ce:	0106      	lsr r0,r0,0x8
 1d0:	0000      	beq 1d0 <_epiphany_start+0x50>
 1d2:	0005      	ldrb r0,[r0],r0
 1d4:	7431      	strh r3,[r5,r0]
 1d6:	2400      	beq 21e <_deregister_tm_clones+0xe>
 1d8:	009f 0000 	*unknown*
 1dc:	0000      	beq 1dc <_epiphany_start+0x5c>
 1de:	0000      	beq 1de <_epiphany_start+0x5e>
 1e0:	8400      	beq e8 <_main+0x68>
 1e2:	0000      	beq 1e2 <_epiphany_start+0x62>
 1e4:	b300      	beq 14a <_main+0xca>
 1e6:	0000      	beq 1e6 <_epiphany_start+0x66>
 1e8:	0100      	beq 1ea <RDS+0x2>
 1ea:	5200      	beq 28e <___do_global_dtors_aux+0x22>
 1ec:	00f6      	lsl r0,r0,0x7
 1ee:	0000      	beq 1ee <RDS+0x6>
 1f0:	00f7      	fabs rd,rn
 1f2:	0000      	beq 1f2 <RDS+0xa>
 1f4:	0001      	ldrb r0,[r0,r0]
 1f6:	fa52 0000 	*unknown*
 1fa:	0300      	beq 200 <RDS+0x18>
 1fc:	0001      	ldrb r0,[r0,r0]
 1fe:	0100      	beq 200 <RDS+0x18>
 200:	5200      	beq 2a4 <_frame_dummy+0x4>
	...
 20a:	009e 0000 	*unknown*
 20e:	00cc 0000 	ldr r0,[r0,+0x1]
 212:	0002      	moveq r0,r0
 214:	2190      	blte 256 <_register_tm_clones+0x1a>
 216:	00f6      	lsl r0,r0,0x7
 218:	0000      	beq 218 <_deregister_tm_clones+0x8>
 21a:	00fa      	orr r0,r0,r1
 21c:	0000      	beq 21c <_deregister_tm_clones+0xc>
 21e:	0002      	moveq r0,r0
 220:	2190      	blte 262 <_register_tm_clones+0x26>
 222:	00fe 0000 	*unknown*
 226:	0106      	lsr r0,r0,0x8
 228:	0000      	beq 228 <_deregister_tm_clones+0x18>
 22a:	0002      	moveq r0,r0
 22c:	2190      	blte 26e <___do_global_dtors_aux+0x2>
	...

Disassembly of section .debug_ranges:

00000000 <___stack-0x7ff0>:
   0:	002a      	lsl r0,r0,r0
   2:	0000      	beq 2 <__CORE_NUM_+0x2>
   4:	0032      	movgteu r0,r0
   6:	0000      	beq 6 <__NUM_COLS_IN_CHIP_+0x2>
   8:	0062      	movgt r0,r0
   a:	0000      	beq a <__CORE_COL_+0x2>
   c:	0068 0000 	bgt c <__CORE_COL_+0x4>
  10:	0070      	bgte 10 <__CORE_COL_+0x8>
  12:	0000      	beq 12 <__CORE_COL_+0xa>
  14:	00c4      	ldr r0,[r0,0x1]
  16:	0000      	beq 16 <__CORE_COL_+0xe>
  18:	00f6      	lsl r0,r0,0x7
  1a:	0000      	beq 1a <__CORE_COL_+0x12>
  1c:	0106      	lsr r0,r0,0x8
	...
